riscv32-unknown-linux-gnu-objdump -d kernel

kernel:     file format elf32-littleriscv


Disassembly of section .text:

20001000 <_ftext>:
	...

200010b0 <print>:
200010b0:	fc010113          	addi	sp,sp,-64
200010b4:	02112e23          	sw	ra,60(sp)
200010b8:	02812c23          	sw	s0,56(sp)
200010bc:	04010413          	addi	s0,sp,64
200010c0:	fca42623          	sw	a0,-52(s0)
200010c4:	fcc42783          	lw	a5,-52(s0)
200010c8:	fef42623          	sw	a5,-20(s0)
200010cc:	100007b7          	lui	a5,0x10000
200010d0:	25478793          	addi	a5,a5,596 # 10000254 <_ftext-0x10000dac>
200010d4:	fef42423          	sw	a5,-24(s0)
200010d8:	fe842783          	lw	a5,-24(s0)
200010dc:	00c78793          	addi	a5,a5,12
200010e0:	fef42223          	sw	a5,-28(s0)
200010e4:	200067b7          	lui	a5,0x20006
200010e8:	00078793          	mv	a5,a5
200010ec:	00000693          	li	a3,0
200010f0:	00000613          	li	a2,0
200010f4:	00078593          	mv	a1,a5
200010f8:	ffd00513          	li	a0,-3
200010fc:	134040ef          	jal	ra,20005230 <SYSCALL>
20001100:	0540006f          	j	20001154 <print+0xa4>
20001104:	fec42783          	lw	a5,-20(s0)
20001108:	0007c783          	lbu	a5,0(a5) # 20006000 <sem_term_mut>
2000110c:	00879793          	slli	a5,a5,0x8
20001110:	0027e793          	ori	a5,a5,2
20001114:	fef42023          	sw	a5,-32(s0)
20001118:	fe442783          	lw	a5,-28(s0)
2000111c:	00000693          	li	a3,0
20001120:	fe042603          	lw	a2,-32(s0)
20001124:	00078593          	mv	a1,a5
20001128:	ffb00513          	li	a0,-5
2000112c:	104040ef          	jal	ra,20005230 <SYSCALL>
20001130:	fca42e23          	sw	a0,-36(s0)
20001134:	fdc42783          	lw	a5,-36(s0)
20001138:	0ff7f713          	zext.b	a4,a5
2000113c:	00500793          	li	a5,5
20001140:	00f70463          	beq	a4,a5,20001148 <print+0x98>
20001144:	218040ef          	jal	ra,2000535c <PANIC>
20001148:	fec42783          	lw	a5,-20(s0)
2000114c:	00178793          	addi	a5,a5,1
20001150:	fef42623          	sw	a5,-20(s0)
20001154:	fec42783          	lw	a5,-20(s0)
20001158:	0007c783          	lbu	a5,0(a5)
2000115c:	fa0794e3          	bnez	a5,20001104 <print+0x54>
20001160:	200067b7          	lui	a5,0x20006
20001164:	00078793          	mv	a5,a5
20001168:	00000693          	li	a3,0
2000116c:	00000613          	li	a2,0
20001170:	00078593          	mv	a1,a5
20001174:	ffc00513          	li	a0,-4
20001178:	0b8040ef          	jal	ra,20005230 <SYSCALL>
2000117c:	00000013          	nop
20001180:	03c12083          	lw	ra,60(sp)
20001184:	03812403          	lw	s0,56(sp)
20001188:	04010113          	addi	sp,sp,64
2000118c:	00008067          	ret

20001190 <uTLB_RefillHandler>:
20001190:	ff010113          	addi	sp,sp,-16
20001194:	00112623          	sw	ra,12(sp)
20001198:	00812423          	sw	s0,8(sp)
2000119c:	01010413          	addi	s0,sp,16
200011a0:	80000537          	lui	a0,0x80000
200011a4:	104040ef          	jal	ra,200052a8 <setENTRYHI>
200011a8:	00000513          	li	a0,0
200011ac:	0ec040ef          	jal	ra,20005298 <setENTRYLO>
200011b0:	110040ef          	jal	ra,200052c0 <TLBWR>
200011b4:	0ffff537          	lui	a0,0xffff
200011b8:	154040ef          	jal	ra,2000530c <LDST>
200011bc:	00000013          	nop
200011c0:	00c12083          	lw	ra,12(sp)
200011c4:	00812403          	lw	s0,8(sp)
200011c8:	01010113          	addi	sp,sp,16
200011cc:	00008067          	ret

200011d0 <test>:
200011d0:	fe010113          	addi	sp,sp,-32
200011d4:	00112e23          	sw	ra,28(sp)
200011d8:	00812c23          	sw	s0,24(sp)
200011dc:	02010413          	addi	s0,sp,32
200011e0:	200067b7          	lui	a5,0x20006
200011e4:	02878793          	addi	a5,a5,40 # 20006028 <sem_testsem>
200011e8:	00000693          	li	a3,0
200011ec:	00000613          	li	a2,0
200011f0:	00078593          	mv	a1,a5
200011f4:	ffc00513          	li	a0,-4
200011f8:	038040ef          	jal	ra,20005230 <SYSCALL>
200011fc:	200057b7          	lui	a5,0x20005
20001200:	68478513          	addi	a0,a5,1668 # 20005684 <main+0xf4>
20001204:	eadff0ef          	jal	ra,200010b0 <print>
20001208:	200077b7          	lui	a5,0x20007
2000120c:	94878513          	addi	a0,a5,-1720 # 20006948 <hp_p1state>
20001210:	0f4040ef          	jal	ra,20005304 <STST>
20001214:	200077b7          	lui	a5,0x20007
20001218:	94878793          	addi	a5,a5,-1720 # 20006948 <hp_p1state>
2000121c:	0787a783          	lw	a5,120(a5)
20001220:	c0078713          	addi	a4,a5,-1024
20001224:	200077b7          	lui	a5,0x20007
20001228:	94878793          	addi	a5,a5,-1720 # 20006948 <hp_p1state>
2000122c:	06e7ac23          	sw	a4,120(a5)
20001230:	200037b7          	lui	a5,0x20003
20001234:	d6478713          	addi	a4,a5,-668 # 20002d64 <hp_p1>
20001238:	200077b7          	lui	a5,0x20007
2000123c:	94878793          	addi	a5,a5,-1720 # 20006948 <hp_p1state>
20001240:	06e7a823          	sw	a4,112(a5)
20001244:	200077b7          	lui	a5,0x20007
20001248:	94878793          	addi	a5,a5,-1720 # 20006948 <hp_p1state>
2000124c:	0707a703          	lw	a4,112(a5)
20001250:	200077b7          	lui	a5,0x20007
20001254:	94878793          	addi	a5,a5,-1720 # 20006948 <hp_p1state>
20001258:	00e7a623          	sw	a4,12(a5)
2000125c:	200077b7          	lui	a5,0x20007
20001260:	94878793          	addi	a5,a5,-1720 # 20006948 <hp_p1state>
20001264:	0087a703          	lw	a4,8(a5)
20001268:	080107b7          	lui	a5,0x8010
2000126c:	d0478793          	addi	a5,a5,-764 # 800fd04 <_ftext-0x17ff12fc>
20001270:	00f76733          	or	a4,a4,a5
20001274:	200077b7          	lui	a5,0x20007
20001278:	94878793          	addi	a5,a5,-1720 # 20006948 <hp_p1state>
2000127c:	00e7a423          	sw	a4,8(a5)
20001280:	200077b7          	lui	a5,0x20007
20001284:	9d478513          	addi	a0,a5,-1580 # 200069d4 <hp_p2state>
20001288:	07c040ef          	jal	ra,20005304 <STST>
2000128c:	200077b7          	lui	a5,0x20007
20001290:	94878793          	addi	a5,a5,-1720 # 20006948 <hp_p1state>
20001294:	0787a783          	lw	a5,120(a5)
20001298:	c0078713          	addi	a4,a5,-1024
2000129c:	200077b7          	lui	a5,0x20007
200012a0:	9d478793          	addi	a5,a5,-1580 # 200069d4 <hp_p2state>
200012a4:	06e7ac23          	sw	a4,120(a5)
200012a8:	200037b7          	lui	a5,0x20003
200012ac:	dec78713          	addi	a4,a5,-532 # 20002dec <hp_p2>
200012b0:	200077b7          	lui	a5,0x20007
200012b4:	9d478793          	addi	a5,a5,-1580 # 200069d4 <hp_p2state>
200012b8:	06e7a823          	sw	a4,112(a5)
200012bc:	200077b7          	lui	a5,0x20007
200012c0:	9d478793          	addi	a5,a5,-1580 # 200069d4 <hp_p2state>
200012c4:	0707a703          	lw	a4,112(a5)
200012c8:	200077b7          	lui	a5,0x20007
200012cc:	9d478793          	addi	a5,a5,-1580 # 200069d4 <hp_p2state>
200012d0:	00e7a623          	sw	a4,12(a5)
200012d4:	200077b7          	lui	a5,0x20007
200012d8:	9d478793          	addi	a5,a5,-1580 # 200069d4 <hp_p2state>
200012dc:	0087a703          	lw	a4,8(a5)
200012e0:	080107b7          	lui	a5,0x8010
200012e4:	d0478793          	addi	a5,a5,-764 # 800fd04 <_ftext-0x17ff12fc>
200012e8:	00f76733          	or	a4,a4,a5
200012ec:	200077b7          	lui	a5,0x20007
200012f0:	9d478793          	addi	a5,a5,-1580 # 200069d4 <hp_p2state>
200012f4:	00e7a423          	sw	a4,8(a5)
200012f8:	200067b7          	lui	a5,0x20006
200012fc:	11478513          	addi	a0,a5,276 # 20006114 <p2state>
20001300:	004040ef          	jal	ra,20005304 <STST>
20001304:	200077b7          	lui	a5,0x20007
20001308:	9d478793          	addi	a5,a5,-1580 # 200069d4 <hp_p2state>
2000130c:	0787a783          	lw	a5,120(a5)
20001310:	c0078713          	addi	a4,a5,-1024
20001314:	200067b7          	lui	a5,0x20006
20001318:	11478793          	addi	a5,a5,276 # 20006114 <p2state>
2000131c:	06e7ac23          	sw	a4,120(a5)
20001320:	200027b7          	lui	a5,0x20002
20001324:	d9078713          	addi	a4,a5,-624 # 20001d90 <p2>
20001328:	200067b7          	lui	a5,0x20006
2000132c:	11478793          	addi	a5,a5,276 # 20006114 <p2state>
20001330:	06e7a823          	sw	a4,112(a5)
20001334:	200067b7          	lui	a5,0x20006
20001338:	11478793          	addi	a5,a5,276 # 20006114 <p2state>
2000133c:	0707a703          	lw	a4,112(a5)
20001340:	200067b7          	lui	a5,0x20006
20001344:	11478793          	addi	a5,a5,276 # 20006114 <p2state>
20001348:	00e7a623          	sw	a4,12(a5)
2000134c:	200067b7          	lui	a5,0x20006
20001350:	11478793          	addi	a5,a5,276 # 20006114 <p2state>
20001354:	0087a703          	lw	a4,8(a5)
20001358:	080107b7          	lui	a5,0x8010
2000135c:	d0478793          	addi	a5,a5,-764 # 800fd04 <_ftext-0x17ff12fc>
20001360:	00f76733          	or	a4,a4,a5
20001364:	200067b7          	lui	a5,0x20006
20001368:	11478793          	addi	a5,a5,276 # 20006114 <p2state>
2000136c:	00e7a423          	sw	a4,8(a5)
20001370:	200067b7          	lui	a5,0x20006
20001374:	1a078513          	addi	a0,a5,416 # 200061a0 <p3state>
20001378:	78d030ef          	jal	ra,20005304 <STST>
2000137c:	200067b7          	lui	a5,0x20006
20001380:	11478793          	addi	a5,a5,276 # 20006114 <p2state>
20001384:	0787a783          	lw	a5,120(a5)
20001388:	c0078713          	addi	a4,a5,-1024
2000138c:	200067b7          	lui	a5,0x20006
20001390:	1a078793          	addi	a5,a5,416 # 200061a0 <p3state>
20001394:	06e7ac23          	sw	a4,120(a5)
20001398:	200027b7          	lui	a5,0x20002
2000139c:	fe078713          	addi	a4,a5,-32 # 20001fe0 <p3>
200013a0:	200067b7          	lui	a5,0x20006
200013a4:	1a078793          	addi	a5,a5,416 # 200061a0 <p3state>
200013a8:	06e7a823          	sw	a4,112(a5)
200013ac:	200067b7          	lui	a5,0x20006
200013b0:	1a078793          	addi	a5,a5,416 # 200061a0 <p3state>
200013b4:	0707a703          	lw	a4,112(a5)
200013b8:	200067b7          	lui	a5,0x20006
200013bc:	1a078793          	addi	a5,a5,416 # 200061a0 <p3state>
200013c0:	00e7a623          	sw	a4,12(a5)
200013c4:	200067b7          	lui	a5,0x20006
200013c8:	1a078793          	addi	a5,a5,416 # 200061a0 <p3state>
200013cc:	0087a703          	lw	a4,8(a5)
200013d0:	080107b7          	lui	a5,0x8010
200013d4:	d0478793          	addi	a5,a5,-764 # 800fd04 <_ftext-0x17ff12fc>
200013d8:	00f76733          	or	a4,a4,a5
200013dc:	200067b7          	lui	a5,0x20006
200013e0:	1a078793          	addi	a5,a5,416 # 200061a0 <p3state>
200013e4:	00e7a423          	sw	a4,8(a5)
200013e8:	200067b7          	lui	a5,0x20006
200013ec:	22c78513          	addi	a0,a5,556 # 2000622c <p4state>
200013f0:	715030ef          	jal	ra,20005304 <STST>
200013f4:	200067b7          	lui	a5,0x20006
200013f8:	1a078793          	addi	a5,a5,416 # 200061a0 <p3state>
200013fc:	0787a783          	lw	a5,120(a5)
20001400:	c0078713          	addi	a4,a5,-1024
20001404:	200067b7          	lui	a5,0x20006
20001408:	22c78793          	addi	a5,a5,556 # 2000622c <p4state>
2000140c:	06e7ac23          	sw	a4,120(a5)
20001410:	200027b7          	lui	a5,0x20002
20001414:	17478713          	addi	a4,a5,372 # 20002174 <p4>
20001418:	200067b7          	lui	a5,0x20006
2000141c:	22c78793          	addi	a5,a5,556 # 2000622c <p4state>
20001420:	06e7a823          	sw	a4,112(a5)
20001424:	200067b7          	lui	a5,0x20006
20001428:	22c78793          	addi	a5,a5,556 # 2000622c <p4state>
2000142c:	0707a703          	lw	a4,112(a5)
20001430:	200067b7          	lui	a5,0x20006
20001434:	22c78793          	addi	a5,a5,556 # 2000622c <p4state>
20001438:	00e7a623          	sw	a4,12(a5)
2000143c:	200067b7          	lui	a5,0x20006
20001440:	22c78793          	addi	a5,a5,556 # 2000622c <p4state>
20001444:	0087a703          	lw	a4,8(a5)
20001448:	080107b7          	lui	a5,0x8010
2000144c:	d0478793          	addi	a5,a5,-764 # 800fd04 <_ftext-0x17ff12fc>
20001450:	00f76733          	or	a4,a4,a5
20001454:	200067b7          	lui	a5,0x20006
20001458:	22c78793          	addi	a5,a5,556 # 2000622c <p4state>
2000145c:	00e7a423          	sw	a4,8(a5)
20001460:	200067b7          	lui	a5,0x20006
20001464:	2b878513          	addi	a0,a5,696 # 200062b8 <p5state>
20001468:	69d030ef          	jal	ra,20005304 <STST>
2000146c:	200067b7          	lui	a5,0x20006
20001470:	22c78793          	addi	a5,a5,556 # 2000622c <p4state>
20001474:	0787a783          	lw	a5,120(a5)
20001478:	80078713          	addi	a4,a5,-2048
2000147c:	200067b7          	lui	a5,0x20006
20001480:	2b878793          	addi	a5,a5,696 # 200062b8 <p5state>
20001484:	06e7ac23          	sw	a4,120(a5)
20001488:	200067b7          	lui	a5,0x20006
2000148c:	2b878793          	addi	a5,a5,696 # 200062b8 <p5state>
20001490:	0787a703          	lw	a4,120(a5)
20001494:	200067b7          	lui	a5,0x20006
20001498:	06e7a423          	sw	a4,104(a5) # 20006068 <p5Stack>
2000149c:	200027b7          	lui	a5,0x20002
200014a0:	61c78713          	addi	a4,a5,1564 # 2000261c <p5>
200014a4:	200067b7          	lui	a5,0x20006
200014a8:	2b878793          	addi	a5,a5,696 # 200062b8 <p5state>
200014ac:	06e7a823          	sw	a4,112(a5)
200014b0:	200067b7          	lui	a5,0x20006
200014b4:	2b878793          	addi	a5,a5,696 # 200062b8 <p5state>
200014b8:	0707a703          	lw	a4,112(a5)
200014bc:	200067b7          	lui	a5,0x20006
200014c0:	2b878793          	addi	a5,a5,696 # 200062b8 <p5state>
200014c4:	00e7a623          	sw	a4,12(a5)
200014c8:	200067b7          	lui	a5,0x20006
200014cc:	2b878793          	addi	a5,a5,696 # 200062b8 <p5state>
200014d0:	0087a703          	lw	a4,8(a5)
200014d4:	080107b7          	lui	a5,0x8010
200014d8:	d0478793          	addi	a5,a5,-764 # 800fd04 <_ftext-0x17ff12fc>
200014dc:	00f76733          	or	a4,a4,a5
200014e0:	200067b7          	lui	a5,0x20006
200014e4:	2b878793          	addi	a5,a5,696 # 200062b8 <p5state>
200014e8:	00e7a423          	sw	a4,8(a5)
200014ec:	200067b7          	lui	a5,0x20006
200014f0:	34478513          	addi	a0,a5,836 # 20006344 <p6state>
200014f4:	611030ef          	jal	ra,20005304 <STST>
200014f8:	200067b7          	lui	a5,0x20006
200014fc:	2b878793          	addi	a5,a5,696 # 200062b8 <p5state>
20001500:	0787a783          	lw	a5,120(a5)
20001504:	80078713          	addi	a4,a5,-2048
20001508:	200067b7          	lui	a5,0x20006
2000150c:	34478793          	addi	a5,a5,836 # 20006344 <p6state>
20001510:	06e7ac23          	sw	a4,120(a5)
20001514:	200027b7          	lui	a5,0x20002
20001518:	7cc78713          	addi	a4,a5,1996 # 200027cc <p6>
2000151c:	200067b7          	lui	a5,0x20006
20001520:	34478793          	addi	a5,a5,836 # 20006344 <p6state>
20001524:	06e7a823          	sw	a4,112(a5)
20001528:	200067b7          	lui	a5,0x20006
2000152c:	34478793          	addi	a5,a5,836 # 20006344 <p6state>
20001530:	0707a703          	lw	a4,112(a5)
20001534:	200067b7          	lui	a5,0x20006
20001538:	34478793          	addi	a5,a5,836 # 20006344 <p6state>
2000153c:	00e7a623          	sw	a4,12(a5)
20001540:	200067b7          	lui	a5,0x20006
20001544:	34478793          	addi	a5,a5,836 # 20006344 <p6state>
20001548:	0087a703          	lw	a4,8(a5)
2000154c:	080107b7          	lui	a5,0x8010
20001550:	d0478793          	addi	a5,a5,-764 # 800fd04 <_ftext-0x17ff12fc>
20001554:	00f76733          	or	a4,a4,a5
20001558:	200067b7          	lui	a5,0x20006
2000155c:	34478793          	addi	a5,a5,836 # 20006344 <p6state>
20001560:	00e7a423          	sw	a4,8(a5)
20001564:	200067b7          	lui	a5,0x20006
20001568:	3d078513          	addi	a0,a5,976 # 200063d0 <p7state>
2000156c:	599030ef          	jal	ra,20005304 <STST>
20001570:	200067b7          	lui	a5,0x20006
20001574:	34478793          	addi	a5,a5,836 # 20006344 <p6state>
20001578:	0787a783          	lw	a5,120(a5)
2000157c:	c0078713          	addi	a4,a5,-1024
20001580:	200067b7          	lui	a5,0x20006
20001584:	3d078793          	addi	a5,a5,976 # 200063d0 <p7state>
20001588:	06e7ac23          	sw	a4,120(a5)
2000158c:	200037b7          	lui	a5,0x20003
20001590:	82078713          	addi	a4,a5,-2016 # 20002820 <p7>
20001594:	200067b7          	lui	a5,0x20006
20001598:	3d078793          	addi	a5,a5,976 # 200063d0 <p7state>
2000159c:	06e7a823          	sw	a4,112(a5)
200015a0:	200067b7          	lui	a5,0x20006
200015a4:	3d078793          	addi	a5,a5,976 # 200063d0 <p7state>
200015a8:	0707a703          	lw	a4,112(a5)
200015ac:	200067b7          	lui	a5,0x20006
200015b0:	3d078793          	addi	a5,a5,976 # 200063d0 <p7state>
200015b4:	00e7a623          	sw	a4,12(a5)
200015b8:	200067b7          	lui	a5,0x20006
200015bc:	3d078793          	addi	a5,a5,976 # 200063d0 <p7state>
200015c0:	0087a703          	lw	a4,8(a5)
200015c4:	080107b7          	lui	a5,0x8010
200015c8:	d0478793          	addi	a5,a5,-764 # 800fd04 <_ftext-0x17ff12fc>
200015cc:	00f76733          	or	a4,a4,a5
200015d0:	200067b7          	lui	a5,0x20006
200015d4:	3d078793          	addi	a5,a5,976 # 200063d0 <p7state>
200015d8:	00e7a423          	sw	a4,8(a5)
200015dc:	200067b7          	lui	a5,0x20006
200015e0:	45c78513          	addi	a0,a5,1116 # 2000645c <p8rootstate>
200015e4:	521030ef          	jal	ra,20005304 <STST>
200015e8:	200067b7          	lui	a5,0x20006
200015ec:	3d078793          	addi	a5,a5,976 # 200063d0 <p7state>
200015f0:	0787a783          	lw	a5,120(a5)
200015f4:	c0078713          	addi	a4,a5,-1024
200015f8:	200067b7          	lui	a5,0x20006
200015fc:	45c78793          	addi	a5,a5,1116 # 2000645c <p8rootstate>
20001600:	06e7ac23          	sw	a4,120(a5)
20001604:	200037b7          	lui	a5,0x20003
20001608:	86878713          	addi	a4,a5,-1944 # 20002868 <p8root>
2000160c:	200067b7          	lui	a5,0x20006
20001610:	45c78793          	addi	a5,a5,1116 # 2000645c <p8rootstate>
20001614:	06e7a823          	sw	a4,112(a5)
20001618:	200067b7          	lui	a5,0x20006
2000161c:	45c78793          	addi	a5,a5,1116 # 2000645c <p8rootstate>
20001620:	0707a703          	lw	a4,112(a5)
20001624:	200067b7          	lui	a5,0x20006
20001628:	45c78793          	addi	a5,a5,1116 # 2000645c <p8rootstate>
2000162c:	00e7a623          	sw	a4,12(a5)
20001630:	200067b7          	lui	a5,0x20006
20001634:	45c78793          	addi	a5,a5,1116 # 2000645c <p8rootstate>
20001638:	0087a703          	lw	a4,8(a5)
2000163c:	080107b7          	lui	a5,0x8010
20001640:	d0478793          	addi	a5,a5,-764 # 800fd04 <_ftext-0x17ff12fc>
20001644:	00f76733          	or	a4,a4,a5
20001648:	200067b7          	lui	a5,0x20006
2000164c:	45c78793          	addi	a5,a5,1116 # 2000645c <p8rootstate>
20001650:	00e7a423          	sw	a4,8(a5)
20001654:	200067b7          	lui	a5,0x20006
20001658:	4e878513          	addi	a0,a5,1256 # 200064e8 <child1state>
2000165c:	4a9030ef          	jal	ra,20005304 <STST>
20001660:	200067b7          	lui	a5,0x20006
20001664:	45c78793          	addi	a5,a5,1116 # 2000645c <p8rootstate>
20001668:	0787a783          	lw	a5,120(a5)
2000166c:	c0078713          	addi	a4,a5,-1024
20001670:	200067b7          	lui	a5,0x20006
20001674:	4e878793          	addi	a5,a5,1256 # 200064e8 <child1state>
20001678:	06e7ac23          	sw	a4,120(a5)
2000167c:	200037b7          	lui	a5,0x20003
20001680:	94878713          	addi	a4,a5,-1720 # 20002948 <child1>
20001684:	200067b7          	lui	a5,0x20006
20001688:	4e878793          	addi	a5,a5,1256 # 200064e8 <child1state>
2000168c:	06e7a823          	sw	a4,112(a5)
20001690:	200067b7          	lui	a5,0x20006
20001694:	4e878793          	addi	a5,a5,1256 # 200064e8 <child1state>
20001698:	0707a703          	lw	a4,112(a5)
2000169c:	200067b7          	lui	a5,0x20006
200016a0:	4e878793          	addi	a5,a5,1256 # 200064e8 <child1state>
200016a4:	00e7a623          	sw	a4,12(a5)
200016a8:	200067b7          	lui	a5,0x20006
200016ac:	4e878793          	addi	a5,a5,1256 # 200064e8 <child1state>
200016b0:	0087a703          	lw	a4,8(a5)
200016b4:	080107b7          	lui	a5,0x8010
200016b8:	d0478793          	addi	a5,a5,-764 # 800fd04 <_ftext-0x17ff12fc>
200016bc:	00f76733          	or	a4,a4,a5
200016c0:	200067b7          	lui	a5,0x20006
200016c4:	4e878793          	addi	a5,a5,1256 # 200064e8 <child1state>
200016c8:	00e7a423          	sw	a4,8(a5)
200016cc:	200067b7          	lui	a5,0x20006
200016d0:	57478513          	addi	a0,a5,1396 # 20006574 <child2state>
200016d4:	431030ef          	jal	ra,20005304 <STST>
200016d8:	200067b7          	lui	a5,0x20006
200016dc:	4e878793          	addi	a5,a5,1256 # 200064e8 <child1state>
200016e0:	0787a783          	lw	a5,120(a5)
200016e4:	c0078713          	addi	a4,a5,-1024
200016e8:	200067b7          	lui	a5,0x20006
200016ec:	57478793          	addi	a5,a5,1396 # 20006574 <child2state>
200016f0:	06e7ac23          	sw	a4,120(a5)
200016f4:	200037b7          	lui	a5,0x20003
200016f8:	a0878713          	addi	a4,a5,-1528 # 20002a08 <child2>
200016fc:	200067b7          	lui	a5,0x20006
20001700:	57478793          	addi	a5,a5,1396 # 20006574 <child2state>
20001704:	06e7a823          	sw	a4,112(a5)
20001708:	200067b7          	lui	a5,0x20006
2000170c:	57478793          	addi	a5,a5,1396 # 20006574 <child2state>
20001710:	0707a703          	lw	a4,112(a5)
20001714:	200067b7          	lui	a5,0x20006
20001718:	57478793          	addi	a5,a5,1396 # 20006574 <child2state>
2000171c:	00e7a623          	sw	a4,12(a5)
20001720:	200067b7          	lui	a5,0x20006
20001724:	57478793          	addi	a5,a5,1396 # 20006574 <child2state>
20001728:	0087a703          	lw	a4,8(a5)
2000172c:	080107b7          	lui	a5,0x8010
20001730:	d0478793          	addi	a5,a5,-764 # 800fd04 <_ftext-0x17ff12fc>
20001734:	00f76733          	or	a4,a4,a5
20001738:	200067b7          	lui	a5,0x20006
2000173c:	57478793          	addi	a5,a5,1396 # 20006574 <child2state>
20001740:	00e7a423          	sw	a4,8(a5)
20001744:	200067b7          	lui	a5,0x20006
20001748:	60078513          	addi	a0,a5,1536 # 20006600 <gchild1state>
2000174c:	3b9030ef          	jal	ra,20005304 <STST>
20001750:	200067b7          	lui	a5,0x20006
20001754:	57478793          	addi	a5,a5,1396 # 20006574 <child2state>
20001758:	0787a783          	lw	a5,120(a5)
2000175c:	c0078713          	addi	a4,a5,-1024
20001760:	200067b7          	lui	a5,0x20006
20001764:	60078793          	addi	a5,a5,1536 # 20006600 <gchild1state>
20001768:	06e7ac23          	sw	a4,120(a5)
2000176c:	200037b7          	lui	a5,0x20003
20001770:	ac878713          	addi	a4,a5,-1336 # 20002ac8 <p8leaf1>
20001774:	200067b7          	lui	a5,0x20006
20001778:	60078793          	addi	a5,a5,1536 # 20006600 <gchild1state>
2000177c:	06e7a823          	sw	a4,112(a5)
20001780:	200067b7          	lui	a5,0x20006
20001784:	60078793          	addi	a5,a5,1536 # 20006600 <gchild1state>
20001788:	0707a703          	lw	a4,112(a5)
2000178c:	200067b7          	lui	a5,0x20006
20001790:	60078793          	addi	a5,a5,1536 # 20006600 <gchild1state>
20001794:	00e7a623          	sw	a4,12(a5)
20001798:	200067b7          	lui	a5,0x20006
2000179c:	60078793          	addi	a5,a5,1536 # 20006600 <gchild1state>
200017a0:	0087a703          	lw	a4,8(a5)
200017a4:	080107b7          	lui	a5,0x8010
200017a8:	d0478793          	addi	a5,a5,-764 # 800fd04 <_ftext-0x17ff12fc>
200017ac:	00f76733          	or	a4,a4,a5
200017b0:	200067b7          	lui	a5,0x20006
200017b4:	60078793          	addi	a5,a5,1536 # 20006600 <gchild1state>
200017b8:	00e7a423          	sw	a4,8(a5)
200017bc:	200067b7          	lui	a5,0x20006
200017c0:	68c78513          	addi	a0,a5,1676 # 2000668c <gchild2state>
200017c4:	341030ef          	jal	ra,20005304 <STST>
200017c8:	200067b7          	lui	a5,0x20006
200017cc:	60078793          	addi	a5,a5,1536 # 20006600 <gchild1state>
200017d0:	0787a783          	lw	a5,120(a5)
200017d4:	c0078713          	addi	a4,a5,-1024
200017d8:	200067b7          	lui	a5,0x20006
200017dc:	68c78793          	addi	a5,a5,1676 # 2000668c <gchild2state>
200017e0:	06e7ac23          	sw	a4,120(a5)
200017e4:	200037b7          	lui	a5,0x20003
200017e8:	b3078713          	addi	a4,a5,-1232 # 20002b30 <p8leaf2>
200017ec:	200067b7          	lui	a5,0x20006
200017f0:	68c78793          	addi	a5,a5,1676 # 2000668c <gchild2state>
200017f4:	06e7a823          	sw	a4,112(a5)
200017f8:	200067b7          	lui	a5,0x20006
200017fc:	68c78793          	addi	a5,a5,1676 # 2000668c <gchild2state>
20001800:	0707a703          	lw	a4,112(a5)
20001804:	200067b7          	lui	a5,0x20006
20001808:	68c78793          	addi	a5,a5,1676 # 2000668c <gchild2state>
2000180c:	00e7a623          	sw	a4,12(a5)
20001810:	200067b7          	lui	a5,0x20006
20001814:	68c78793          	addi	a5,a5,1676 # 2000668c <gchild2state>
20001818:	0087a703          	lw	a4,8(a5)
2000181c:	080107b7          	lui	a5,0x8010
20001820:	d0478793          	addi	a5,a5,-764 # 800fd04 <_ftext-0x17ff12fc>
20001824:	00f76733          	or	a4,a4,a5
20001828:	200067b7          	lui	a5,0x20006
2000182c:	68c78793          	addi	a5,a5,1676 # 2000668c <gchild2state>
20001830:	00e7a423          	sw	a4,8(a5)
20001834:	200067b7          	lui	a5,0x20006
20001838:	71878513          	addi	a0,a5,1816 # 20006718 <gchild3state>
2000183c:	2c9030ef          	jal	ra,20005304 <STST>
20001840:	200067b7          	lui	a5,0x20006
20001844:	68c78793          	addi	a5,a5,1676 # 2000668c <gchild2state>
20001848:	0787a783          	lw	a5,120(a5)
2000184c:	c0078713          	addi	a4,a5,-1024
20001850:	200067b7          	lui	a5,0x20006
20001854:	71878793          	addi	a5,a5,1816 # 20006718 <gchild3state>
20001858:	06e7ac23          	sw	a4,120(a5)
2000185c:	200037b7          	lui	a5,0x20003
20001860:	b9878713          	addi	a4,a5,-1128 # 20002b98 <p8leaf3>
20001864:	200067b7          	lui	a5,0x20006
20001868:	71878793          	addi	a5,a5,1816 # 20006718 <gchild3state>
2000186c:	06e7a823          	sw	a4,112(a5)
20001870:	200067b7          	lui	a5,0x20006
20001874:	71878793          	addi	a5,a5,1816 # 20006718 <gchild3state>
20001878:	0707a703          	lw	a4,112(a5)
2000187c:	200067b7          	lui	a5,0x20006
20001880:	71878793          	addi	a5,a5,1816 # 20006718 <gchild3state>
20001884:	00e7a623          	sw	a4,12(a5)
20001888:	200067b7          	lui	a5,0x20006
2000188c:	71878793          	addi	a5,a5,1816 # 20006718 <gchild3state>
20001890:	0087a703          	lw	a4,8(a5)
20001894:	080107b7          	lui	a5,0x8010
20001898:	d0478793          	addi	a5,a5,-764 # 800fd04 <_ftext-0x17ff12fc>
2000189c:	00f76733          	or	a4,a4,a5
200018a0:	200067b7          	lui	a5,0x20006
200018a4:	71878793          	addi	a5,a5,1816 # 20006718 <gchild3state>
200018a8:	00e7a423          	sw	a4,8(a5)
200018ac:	200067b7          	lui	a5,0x20006
200018b0:	7a478513          	addi	a0,a5,1956 # 200067a4 <gchild4state>
200018b4:	251030ef          	jal	ra,20005304 <STST>
200018b8:	200067b7          	lui	a5,0x20006
200018bc:	71878793          	addi	a5,a5,1816 # 20006718 <gchild3state>
200018c0:	0787a783          	lw	a5,120(a5)
200018c4:	c0078713          	addi	a4,a5,-1024
200018c8:	200067b7          	lui	a5,0x20006
200018cc:	7a478793          	addi	a5,a5,1956 # 200067a4 <gchild4state>
200018d0:	06e7ac23          	sw	a4,120(a5)
200018d4:	200037b7          	lui	a5,0x20003
200018d8:	c0078713          	addi	a4,a5,-1024 # 20002c00 <p8leaf4>
200018dc:	200067b7          	lui	a5,0x20006
200018e0:	7a478793          	addi	a5,a5,1956 # 200067a4 <gchild4state>
200018e4:	06e7a823          	sw	a4,112(a5)
200018e8:	200067b7          	lui	a5,0x20006
200018ec:	7a478793          	addi	a5,a5,1956 # 200067a4 <gchild4state>
200018f0:	0707a703          	lw	a4,112(a5)
200018f4:	200067b7          	lui	a5,0x20006
200018f8:	7a478793          	addi	a5,a5,1956 # 200067a4 <gchild4state>
200018fc:	00e7a623          	sw	a4,12(a5)
20001900:	200067b7          	lui	a5,0x20006
20001904:	7a478793          	addi	a5,a5,1956 # 200067a4 <gchild4state>
20001908:	0087a703          	lw	a4,8(a5)
2000190c:	080107b7          	lui	a5,0x8010
20001910:	d0478793          	addi	a5,a5,-764 # 800fd04 <_ftext-0x17ff12fc>
20001914:	00f76733          	or	a4,a4,a5
20001918:	200067b7          	lui	a5,0x20006
2000191c:	7a478793          	addi	a5,a5,1956 # 200067a4 <gchild4state>
20001920:	00e7a423          	sw	a4,8(a5)
20001924:	200077b7          	lui	a5,0x20007
20001928:	83078513          	addi	a0,a5,-2000 # 20006830 <p9state>
2000192c:	1d9030ef          	jal	ra,20005304 <STST>
20001930:	200067b7          	lui	a5,0x20006
20001934:	7a478793          	addi	a5,a5,1956 # 200067a4 <gchild4state>
20001938:	0787a783          	lw	a5,120(a5)
2000193c:	c0078713          	addi	a4,a5,-1024
20001940:	200077b7          	lui	a5,0x20007
20001944:	83078793          	addi	a5,a5,-2000 # 20006830 <p9state>
20001948:	06e7ac23          	sw	a4,120(a5)
2000194c:	200037b7          	lui	a5,0x20003
20001950:	c6878713          	addi	a4,a5,-920 # 20002c68 <p9>
20001954:	200077b7          	lui	a5,0x20007
20001958:	83078793          	addi	a5,a5,-2000 # 20006830 <p9state>
2000195c:	06e7a823          	sw	a4,112(a5)
20001960:	200077b7          	lui	a5,0x20007
20001964:	83078793          	addi	a5,a5,-2000 # 20006830 <p9state>
20001968:	0707a703          	lw	a4,112(a5)
2000196c:	200077b7          	lui	a5,0x20007
20001970:	83078793          	addi	a5,a5,-2000 # 20006830 <p9state>
20001974:	00e7a623          	sw	a4,12(a5)
20001978:	200077b7          	lui	a5,0x20007
2000197c:	83078793          	addi	a5,a5,-2000 # 20006830 <p9state>
20001980:	0087a703          	lw	a4,8(a5)
20001984:	080107b7          	lui	a5,0x8010
20001988:	d0478793          	addi	a5,a5,-764 # 800fd04 <_ftext-0x17ff12fc>
2000198c:	00f76733          	or	a4,a4,a5
20001990:	200077b7          	lui	a5,0x20007
20001994:	83078793          	addi	a5,a5,-2000 # 20006830 <p9state>
20001998:	00e7a423          	sw	a4,8(a5)
2000199c:	200077b7          	lui	a5,0x20007
200019a0:	8bc78513          	addi	a0,a5,-1860 # 200068bc <p10state>
200019a4:	161030ef          	jal	ra,20005304 <STST>
200019a8:	200077b7          	lui	a5,0x20007
200019ac:	83078793          	addi	a5,a5,-2000 # 20006830 <p9state>
200019b0:	0787a783          	lw	a5,120(a5)
200019b4:	c0078713          	addi	a4,a5,-1024
200019b8:	200077b7          	lui	a5,0x20007
200019bc:	8bc78793          	addi	a5,a5,-1860 # 200068bc <p10state>
200019c0:	06e7ac23          	sw	a4,120(a5)
200019c4:	200037b7          	lui	a5,0x20003
200019c8:	cd078713          	addi	a4,a5,-816 # 20002cd0 <p10>
200019cc:	200077b7          	lui	a5,0x20007
200019d0:	8bc78793          	addi	a5,a5,-1860 # 200068bc <p10state>
200019d4:	06e7a823          	sw	a4,112(a5)
200019d8:	200077b7          	lui	a5,0x20007
200019dc:	8bc78793          	addi	a5,a5,-1860 # 200068bc <p10state>
200019e0:	0707a703          	lw	a4,112(a5)
200019e4:	200077b7          	lui	a5,0x20007
200019e8:	8bc78793          	addi	a5,a5,-1860 # 200068bc <p10state>
200019ec:	00e7a623          	sw	a4,12(a5)
200019f0:	200077b7          	lui	a5,0x20007
200019f4:	8bc78793          	addi	a5,a5,-1860 # 200068bc <p10state>
200019f8:	0087a703          	lw	a4,8(a5)
200019fc:	080107b7          	lui	a5,0x8010
20001a00:	d0478793          	addi	a5,a5,-764 # 800fd04 <_ftext-0x17ff12fc>
20001a04:	00f76733          	or	a4,a4,a5
20001a08:	200077b7          	lui	a5,0x20007
20001a0c:	8bc78793          	addi	a5,a5,-1860 # 200068bc <p10state>
20001a10:	00e7a423          	sw	a4,8(a5)
20001a14:	200067b7          	lui	a5,0x20006
20001a18:	11478793          	addi	a5,a5,276 # 20006114 <p2state>
20001a1c:	00000693          	li	a3,0
20001a20:	00000613          	li	a2,0
20001a24:	00078593          	mv	a1,a5
20001a28:	fff00513          	li	a0,-1
20001a2c:	005030ef          	jal	ra,20005230 <SYSCALL>
20001a30:	00050793          	mv	a5,a0
20001a34:	00078713          	mv	a4,a5
20001a38:	200067b7          	lui	a5,0x20006
20001a3c:	04e7a623          	sw	a4,76(a5) # 2000604c <p2pid>
20001a40:	200057b7          	lui	a5,0x20005
20001a44:	69878513          	addi	a0,a5,1688 # 20005698 <main+0x108>
20001a48:	e68ff0ef          	jal	ra,200010b0 <print>
20001a4c:	200067b7          	lui	a5,0x20006
20001a50:	02c78793          	addi	a5,a5,44 # 2000602c <sem_startp2>
20001a54:	00000693          	li	a3,0
20001a58:	00000613          	li	a2,0
20001a5c:	00078593          	mv	a1,a5
20001a60:	ffc00513          	li	a0,-4
20001a64:	7cc030ef          	jal	ra,20005230 <SYSCALL>
20001a68:	200067b7          	lui	a5,0x20006
20001a6c:	00478793          	addi	a5,a5,4 # 20006004 <sem_endp2>
20001a70:	00000693          	li	a3,0
20001a74:	00000613          	li	a2,0
20001a78:	00078593          	mv	a1,a5
20001a7c:	ffc00513          	li	a0,-4
20001a80:	7b0030ef          	jal	ra,20005230 <SYSCALL>
20001a84:	200067b7          	lui	a5,0x20006
20001a88:	0607a783          	lw	a5,96(a5) # 20006060 <p1p2synch>
20001a8c:	00079863          	bnez	a5,20001a9c <test+0x8cc>
20001a90:	200057b7          	lui	a5,0x20005
20001a94:	6a878513          	addi	a0,a5,1704 # 200056a8 <main+0x118>
20001a98:	e18ff0ef          	jal	ra,200010b0 <print>
20001a9c:	200067b7          	lui	a5,0x20006
20001aa0:	1a078793          	addi	a5,a5,416 # 200061a0 <p3state>
20001aa4:	00000693          	li	a3,0
20001aa8:	00000613          	li	a2,0
20001aac:	00078593          	mv	a1,a5
20001ab0:	fff00513          	li	a0,-1
20001ab4:	77c030ef          	jal	ra,20005230 <SYSCALL>
20001ab8:	00050793          	mv	a5,a0
20001abc:	00078713          	mv	a4,a5
20001ac0:	200067b7          	lui	a5,0x20006
20001ac4:	04e7a823          	sw	a4,80(a5) # 20006050 <p3pid>
20001ac8:	200057b7          	lui	a5,0x20005
20001acc:	6cc78513          	addi	a0,a5,1740 # 200056cc <main+0x13c>
20001ad0:	de0ff0ef          	jal	ra,200010b0 <print>
20001ad4:	200067b7          	lui	a5,0x20006
20001ad8:	03078793          	addi	a5,a5,48 # 20006030 <sem_endp3>
20001adc:	00000693          	li	a3,0
20001ae0:	00000613          	li	a2,0
20001ae4:	00078593          	mv	a1,a5
20001ae8:	ffd00513          	li	a0,-3
20001aec:	744030ef          	jal	ra,20005230 <SYSCALL>
20001af0:	200077b7          	lui	a5,0x20007
20001af4:	94878793          	addi	a5,a5,-1720 # 20006948 <hp_p1state>
20001af8:	00000693          	li	a3,0
20001afc:	00100613          	li	a2,1
20001b00:	00078593          	mv	a1,a5
20001b04:	fff00513          	li	a0,-1
20001b08:	728030ef          	jal	ra,20005230 <SYSCALL>
20001b0c:	200077b7          	lui	a5,0x20007
20001b10:	9d478793          	addi	a5,a5,-1580 # 200069d4 <hp_p2state>
20001b14:	00000693          	li	a3,0
20001b18:	00100613          	li	a2,1
20001b1c:	00078593          	mv	a1,a5
20001b20:	fff00513          	li	a0,-1
20001b24:	70c030ef          	jal	ra,20005230 <SYSCALL>
20001b28:	200067b7          	lui	a5,0x20006
20001b2c:	22c78793          	addi	a5,a5,556 # 2000622c <p4state>
20001b30:	00000693          	li	a3,0
20001b34:	00000613          	li	a2,0
20001b38:	00078593          	mv	a1,a5
20001b3c:	fff00513          	li	a0,-1
20001b40:	6f0030ef          	jal	ra,20005230 <SYSCALL>
20001b44:	00050793          	mv	a5,a0
20001b48:	00078713          	mv	a4,a5
20001b4c:	200067b7          	lui	a5,0x20006
20001b50:	04e7aa23          	sw	a4,84(a5) # 20006054 <p4pid>
20001b54:	200067b7          	lui	a5,0x20006
20001b58:	0687a703          	lw	a4,104(a5) # 20006068 <p5Stack>
20001b5c:	200077b7          	lui	a5,0x20007
20001b60:	a6078793          	addi	a5,a5,-1440 # 20006a60 <pFiveSupport>
20001b64:	12e7a823          	sw	a4,304(a5)
20001b68:	200077b7          	lui	a5,0x20007
20001b6c:	a6078793          	addi	a5,a5,-1440 # 20006a60 <pFiveSupport>
20001b70:	08010737          	lui	a4,0x8010
20001b74:	d0470713          	addi	a4,a4,-764 # 800fd04 <_ftext-0x17ff12fc>
20001b78:	12e7aa23          	sw	a4,308(a5)
20001b7c:	200027b7          	lui	a5,0x20002
20001b80:	32878713          	addi	a4,a5,808 # 20002328 <p5gen>
20001b84:	200077b7          	lui	a5,0x20007
20001b88:	a6078793          	addi	a5,a5,-1440 # 20006a60 <pFiveSupport>
20001b8c:	12e7ac23          	sw	a4,312(a5)
20001b90:	200067b7          	lui	a5,0x20006
20001b94:	0687a703          	lw	a4,104(a5) # 20006068 <p5Stack>
20001b98:	200077b7          	lui	a5,0x20007
20001b9c:	a6078793          	addi	a5,a5,-1440 # 20006a60 <pFiveSupport>
20001ba0:	12e7a223          	sw	a4,292(a5)
20001ba4:	200077b7          	lui	a5,0x20007
20001ba8:	a6078793          	addi	a5,a5,-1440 # 20006a60 <pFiveSupport>
20001bac:	08010737          	lui	a4,0x8010
20001bb0:	d0470713          	addi	a4,a4,-764 # 800fd04 <_ftext-0x17ff12fc>
20001bb4:	12e7a423          	sw	a4,296(a5)
20001bb8:	200027b7          	lui	a5,0x20002
20001bbc:	4b478713          	addi	a4,a5,1204 # 200024b4 <p5mm>
20001bc0:	200077b7          	lui	a5,0x20007
20001bc4:	a6078793          	addi	a5,a5,-1440 # 20006a60 <pFiveSupport>
20001bc8:	12e7a623          	sw	a4,300(a5)
20001bcc:	200067b7          	lui	a5,0x20006
20001bd0:	2b878713          	addi	a4,a5,696 # 200062b8 <p5state>
20001bd4:	200077b7          	lui	a5,0x20007
20001bd8:	a6078793          	addi	a5,a5,-1440 # 20006a60 <pFiveSupport>
20001bdc:	00078693          	mv	a3,a5
20001be0:	00000613          	li	a2,0
20001be4:	00070593          	mv	a1,a4
20001be8:	fff00513          	li	a0,-1
20001bec:	644030ef          	jal	ra,20005230 <SYSCALL>
20001bf0:	200067b7          	lui	a5,0x20006
20001bf4:	34478793          	addi	a5,a5,836 # 20006344 <p6state>
20001bf8:	00000693          	li	a3,0
20001bfc:	00000613          	li	a2,0
20001c00:	00078593          	mv	a1,a5
20001c04:	fff00513          	li	a0,-1
20001c08:	628030ef          	jal	ra,20005230 <SYSCALL>
20001c0c:	200067b7          	lui	a5,0x20006
20001c10:	3d078793          	addi	a5,a5,976 # 200063d0 <p7state>
20001c14:	00000693          	li	a3,0
20001c18:	00000613          	li	a2,0
20001c1c:	00078593          	mv	a1,a5
20001c20:	fff00513          	li	a0,-1
20001c24:	60c030ef          	jal	ra,20005230 <SYSCALL>
20001c28:	200077b7          	lui	a5,0x20007
20001c2c:	83078793          	addi	a5,a5,-2000 # 20006830 <p9state>
20001c30:	00000693          	li	a3,0
20001c34:	00000613          	li	a2,0
20001c38:	00078593          	mv	a1,a5
20001c3c:	fff00513          	li	a0,-1
20001c40:	5f0030ef          	jal	ra,20005230 <SYSCALL>
20001c44:	00050793          	mv	a5,a0
20001c48:	00078713          	mv	a4,a5
20001c4c:	200067b7          	lui	a5,0x20006
20001c50:	04e7ae23          	sw	a4,92(a5) # 2000605c <p9pid>
20001c54:	200067b7          	lui	a5,0x20006
20001c58:	03c78793          	addi	a5,a5,60 # 2000603c <sem_endp5>
20001c5c:	00000693          	li	a3,0
20001c60:	00000613          	li	a2,0
20001c64:	00078593          	mv	a1,a5
20001c68:	ffd00513          	li	a0,-3
20001c6c:	5c4030ef          	jal	ra,20005230 <SYSCALL>
20001c70:	200057b7          	lui	a5,0x20005
20001c74:	6dc78513          	addi	a0,a5,1756 # 200056dc <main+0x14c>
20001c78:	c38ff0ef          	jal	ra,200010b0 <print>
20001c7c:	200067b7          	lui	a5,0x20006
20001c80:	00878793          	addi	a5,a5,8 # 20006008 <sem_blkp4>
20001c84:	00000693          	li	a3,0
20001c88:	00000613          	li	a2,0
20001c8c:	00078593          	mv	a1,a5
20001c90:	ffd00513          	li	a0,-3
20001c94:	59c030ef          	jal	ra,20005230 <SYSCALL>
20001c98:	200067b7          	lui	a5,0x20006
20001c9c:	0607a223          	sw	zero,100(a5) # 20006064 <p8inc>
20001ca0:	0a80006f          	j	20001d48 <test+0xb78>
20001ca4:	200067b7          	lui	a5,0x20006
20001ca8:	0407a223          	sw	zero,68(a5) # 20006044 <sem_blkp8>
20001cac:	200067b7          	lui	a5,0x20006
20001cb0:	0407a023          	sw	zero,64(a5) # 20006040 <sem_endp8>
20001cb4:	fe042623          	sw	zero,-20(s0)
20001cb8:	0280006f          	j	20001ce0 <test+0xb10>
20001cbc:	200067b7          	lui	a5,0x20006
20001cc0:	10478713          	addi	a4,a5,260 # 20006104 <sem_endcreate>
20001cc4:	fec42783          	lw	a5,-20(s0)
20001cc8:	00279793          	slli	a5,a5,0x2
20001ccc:	00f707b3          	add	a5,a4,a5
20001cd0:	0007a023          	sw	zero,0(a5)
20001cd4:	fec42783          	lw	a5,-20(s0)
20001cd8:	00178793          	addi	a5,a5,1
20001cdc:	fef42623          	sw	a5,-20(s0)
20001ce0:	fec42703          	lw	a4,-20(s0)
20001ce4:	00300793          	li	a5,3
20001ce8:	fce7dae3          	bge	a5,a4,20001cbc <test+0xaec>
20001cec:	200067b7          	lui	a5,0x20006
20001cf0:	45c78793          	addi	a5,a5,1116 # 2000645c <p8rootstate>
20001cf4:	00000693          	li	a3,0
20001cf8:	00000613          	li	a2,0
20001cfc:	00078593          	mv	a1,a5
20001d00:	fff00513          	li	a0,-1
20001d04:	52c030ef          	jal	ra,20005230 <SYSCALL>
20001d08:	00050793          	mv	a5,a0
20001d0c:	00078713          	mv	a4,a5
20001d10:	200067b7          	lui	a5,0x20006
20001d14:	04e7ac23          	sw	a4,88(a5) # 20006058 <p8pid>
20001d18:	200067b7          	lui	a5,0x20006
20001d1c:	04078793          	addi	a5,a5,64 # 20006040 <sem_endp8>
20001d20:	00000693          	li	a3,0
20001d24:	00000613          	li	a2,0
20001d28:	00078593          	mv	a1,a5
20001d2c:	ffd00513          	li	a0,-3
20001d30:	500030ef          	jal	ra,20005230 <SYSCALL>
20001d34:	200067b7          	lui	a5,0x20006
20001d38:	0647a783          	lw	a5,100(a5) # 20006064 <p8inc>
20001d3c:	00178713          	addi	a4,a5,1
20001d40:	200067b7          	lui	a5,0x20006
20001d44:	06e7a223          	sw	a4,100(a5) # 20006064 <p8inc>
20001d48:	200067b7          	lui	a5,0x20006
20001d4c:	0647a703          	lw	a4,100(a5) # 20006064 <p8inc>
20001d50:	00300793          	li	a5,3
20001d54:	f4e7d8e3          	bge	a5,a4,20001ca4 <test+0xad4>
20001d58:	200057b7          	lui	a5,0x20005
20001d5c:	6f078513          	addi	a0,a5,1776 # 200056f0 <main+0x160>
20001d60:	b50ff0ef          	jal	ra,200010b0 <print>
20001d64:	fff00793          	li	a5,-1
20001d68:	0007a023          	sw	zero,0(a5)
20001d6c:	200057b7          	lui	a5,0x20005
20001d70:	70878513          	addi	a0,a5,1800 # 20005708 <main+0x178>
20001d74:	b3cff0ef          	jal	ra,200010b0 <print>
20001d78:	5e4030ef          	jal	ra,2000535c <PANIC>
20001d7c:	00000013          	nop
20001d80:	01c12083          	lw	ra,28(sp)
20001d84:	01812403          	lw	s0,24(sp)
20001d88:	02010113          	addi	sp,sp,32
20001d8c:	00008067          	ret

20001d90 <p2>:
20001d90:	fd010113          	addi	sp,sp,-48
20001d94:	02112623          	sw	ra,44(sp)
20001d98:	02812423          	sw	s0,40(sp)
20001d9c:	03010413          	addi	s0,sp,48
20001da0:	200067b7          	lui	a5,0x20006
20001da4:	02c78793          	addi	a5,a5,44 # 2000602c <sem_startp2>
20001da8:	00000693          	li	a3,0
20001dac:	00000613          	li	a2,0
20001db0:	00078593          	mv	a1,a5
20001db4:	ffd00513          	li	a0,-3
20001db8:	478030ef          	jal	ra,20005230 <SYSCALL>
20001dbc:	200057b7          	lui	a5,0x20005
20001dc0:	74078513          	addi	a0,a5,1856 # 20005740 <main+0x1b0>
20001dc4:	aecff0ef          	jal	ra,200010b0 <print>
20001dc8:	00000693          	li	a3,0
20001dcc:	00000613          	li	a2,0
20001dd0:	00000593          	li	a1,0
20001dd4:	ff700513          	li	a0,-9
20001dd8:	458030ef          	jal	ra,20005230 <SYSCALL>
20001ddc:	00050793          	mv	a5,a0
20001de0:	fef42423          	sw	a5,-24(s0)
20001de4:	200067b7          	lui	a5,0x20006
20001de8:	04c7a783          	lw	a5,76(a5) # 2000604c <p2pid>
20001dec:	fe842703          	lw	a4,-24(s0)
20001df0:	00f70a63          	beq	a4,a5,20001e04 <p2+0x74>
20001df4:	200057b7          	lui	a5,0x20005
20001df8:	74c78513          	addi	a0,a5,1868 # 2000574c <main+0x1bc>
20001dfc:	ab4ff0ef          	jal	ra,200010b0 <print>
20001e00:	55c030ef          	jal	ra,2000535c <PANIC>
20001e04:	fe042623          	sw	zero,-20(s0)
20001e08:	0280006f          	j	20001e30 <p2+0xa0>
20001e0c:	200067b7          	lui	a5,0x20006
20001e10:	0b078713          	addi	a4,a5,176 # 200060b0 <s>
20001e14:	fec42783          	lw	a5,-20(s0)
20001e18:	00279793          	slli	a5,a5,0x2
20001e1c:	00f707b3          	add	a5,a4,a5
20001e20:	0007a023          	sw	zero,0(a5)
20001e24:	fec42783          	lw	a5,-20(s0)
20001e28:	00178793          	addi	a5,a5,1
20001e2c:	fef42623          	sw	a5,-20(s0)
20001e30:	fec42703          	lw	a4,-20(s0)
20001e34:	01400793          	li	a5,20
20001e38:	fce7dae3          	bge	a5,a4,20001e0c <p2+0x7c>
20001e3c:	fe042623          	sw	zero,-20(s0)
20001e40:	0880006f          	j	20001ec8 <p2+0x138>
20001e44:	fec42783          	lw	a5,-20(s0)
20001e48:	00279713          	slli	a4,a5,0x2
20001e4c:	200067b7          	lui	a5,0x20006
20001e50:	0b078793          	addi	a5,a5,176 # 200060b0 <s>
20001e54:	00f707b3          	add	a5,a4,a5
20001e58:	00000693          	li	a3,0
20001e5c:	00000613          	li	a2,0
20001e60:	00078593          	mv	a1,a5
20001e64:	ffc00513          	li	a0,-4
20001e68:	3c8030ef          	jal	ra,20005230 <SYSCALL>
20001e6c:	fec42783          	lw	a5,-20(s0)
20001e70:	00279713          	slli	a4,a5,0x2
20001e74:	200067b7          	lui	a5,0x20006
20001e78:	0b078793          	addi	a5,a5,176 # 200060b0 <s>
20001e7c:	00f707b3          	add	a5,a4,a5
20001e80:	00000693          	li	a3,0
20001e84:	00000613          	li	a2,0
20001e88:	00078593          	mv	a1,a5
20001e8c:	ffd00513          	li	a0,-3
20001e90:	3a0030ef          	jal	ra,20005230 <SYSCALL>
20001e94:	200067b7          	lui	a5,0x20006
20001e98:	0b078713          	addi	a4,a5,176 # 200060b0 <s>
20001e9c:	fec42783          	lw	a5,-20(s0)
20001ea0:	00279793          	slli	a5,a5,0x2
20001ea4:	00f707b3          	add	a5,a4,a5
20001ea8:	0007a783          	lw	a5,0(a5)
20001eac:	00078863          	beqz	a5,20001ebc <p2+0x12c>
20001eb0:	200057b7          	lui	a5,0x20005
20001eb4:	77078513          	addi	a0,a5,1904 # 20005770 <main+0x1e0>
20001eb8:	9f8ff0ef          	jal	ra,200010b0 <print>
20001ebc:	fec42783          	lw	a5,-20(s0)
20001ec0:	00178793          	addi	a5,a5,1
20001ec4:	fef42623          	sw	a5,-20(s0)
20001ec8:	fec42703          	lw	a4,-20(s0)
20001ecc:	01400793          	li	a5,20
20001ed0:	f6e7dae3          	bge	a5,a4,20001e44 <p2+0xb4>
20001ed4:	200057b7          	lui	a5,0x20005
20001ed8:	78c78513          	addi	a0,a5,1932 # 2000578c <main+0x1fc>
20001edc:	9d4ff0ef          	jal	ra,200010b0 <print>
20001ee0:	100007b7          	lui	a5,0x10000
20001ee4:	01c78793          	addi	a5,a5,28 # 1000001c <_ftext-0x10000fe4>
20001ee8:	0007a703          	lw	a4,0(a5)
20001eec:	100007b7          	lui	a5,0x10000
20001ef0:	02478793          	addi	a5,a5,36 # 10000024 <_ftext-0x10000fdc>
20001ef4:	0007a783          	lw	a5,0(a5)
20001ef8:	02f747b3          	div	a5,a4,a5
20001efc:	fef42223          	sw	a5,-28(s0)
20001f00:	00000693          	li	a3,0
20001f04:	00000613          	li	a2,0
20001f08:	00000593          	li	a1,0
20001f0c:	ffa00513          	li	a0,-6
20001f10:	320030ef          	jal	ra,20005230 <SYSCALL>
20001f14:	00050793          	mv	a5,a0
20001f18:	fef42023          	sw	a5,-32(s0)
20001f1c:	00100793          	li	a5,1
20001f20:	fef42623          	sw	a5,-20(s0)
20001f24:	0100006f          	j	20001f34 <p2+0x1a4>
20001f28:	fec42783          	lw	a5,-20(s0)
20001f2c:	00178793          	addi	a5,a5,1
20001f30:	fef42623          	sw	a5,-20(s0)
20001f34:	fec42703          	lw	a4,-20(s0)
20001f38:	000027b7          	lui	a5,0x2
20001f3c:	70f78793          	addi	a5,a5,1807 # 270f <_ftext-0x1fffe8f1>
20001f40:	fee7d4e3          	bge	a5,a4,20001f28 <p2+0x198>
20001f44:	00000693          	li	a3,0
20001f48:	00000613          	li	a2,0
20001f4c:	00000593          	li	a1,0
20001f50:	ffa00513          	li	a0,-6
20001f54:	2dc030ef          	jal	ra,20005230 <SYSCALL>
20001f58:	00050793          	mv	a5,a0
20001f5c:	fcf42e23          	sw	a5,-36(s0)
20001f60:	100007b7          	lui	a5,0x10000
20001f64:	01c78793          	addi	a5,a5,28 # 1000001c <_ftext-0x10000fe4>
20001f68:	0007a703          	lw	a4,0(a5)
20001f6c:	100007b7          	lui	a5,0x10000
20001f70:	02478793          	addi	a5,a5,36 # 10000024 <_ftext-0x10000fdc>
20001f74:	0007a783          	lw	a5,0(a5)
20001f78:	02f747b3          	div	a5,a4,a5
20001f7c:	fcf42c23          	sw	a5,-40(s0)
20001f80:	200067b7          	lui	a5,0x20006
20001f84:	00100713          	li	a4,1
20001f88:	06e7a023          	sw	a4,96(a5) # 20006060 <p1p2synch>
20001f8c:	200067b7          	lui	a5,0x20006
20001f90:	00478793          	addi	a5,a5,4 # 20006004 <sem_endp2>
20001f94:	00000693          	li	a3,0
20001f98:	00000613          	li	a2,0
20001f9c:	00078593          	mv	a1,a5
20001fa0:	ffd00513          	li	a0,-3
20001fa4:	28c030ef          	jal	ra,20005230 <SYSCALL>
20001fa8:	00000693          	li	a3,0
20001fac:	00000613          	li	a2,0
20001fb0:	00000593          	li	a1,0
20001fb4:	ffe00513          	li	a0,-2
20001fb8:	278030ef          	jal	ra,20005230 <SYSCALL>
20001fbc:	200057b7          	lui	a5,0x20005
20001fc0:	7a478513          	addi	a0,a5,1956 # 200057a4 <main+0x214>
20001fc4:	8ecff0ef          	jal	ra,200010b0 <print>
20001fc8:	394030ef          	jal	ra,2000535c <PANIC>
20001fcc:	00000013          	nop
20001fd0:	02c12083          	lw	ra,44(sp)
20001fd4:	02812403          	lw	s0,40(sp)
20001fd8:	03010113          	addi	sp,sp,48
20001fdc:	00008067          	ret

20001fe0 <p3>:
20001fe0:	fd010113          	addi	sp,sp,-48
20001fe4:	02112623          	sw	ra,44(sp)
20001fe8:	02812423          	sw	s0,40(sp)
20001fec:	03010413          	addi	s0,sp,48
20001ff0:	fe042623          	sw	zero,-20(s0)
20001ff4:	fe042423          	sw	zero,-24(s0)
20001ff8:	0580006f          	j	20002050 <p3+0x70>
20001ffc:	100007b7          	lui	a5,0x10000
20002000:	01c78793          	addi	a5,a5,28 # 1000001c <_ftext-0x10000fe4>
20002004:	0007a703          	lw	a4,0(a5)
20002008:	100007b7          	lui	a5,0x10000
2000200c:	02478793          	addi	a5,a5,36 # 10000024 <_ftext-0x10000fdc>
20002010:	0007a783          	lw	a5,0(a5)
20002014:	02f747b3          	div	a5,a4,a5
20002018:	fef42623          	sw	a5,-20(s0)
2000201c:	00000693          	li	a3,0
20002020:	00000613          	li	a2,0
20002024:	00000593          	li	a1,0
20002028:	ff900513          	li	a0,-7
2000202c:	204030ef          	jal	ra,20005230 <SYSCALL>
20002030:	100007b7          	lui	a5,0x10000
20002034:	01c78793          	addi	a5,a5,28 # 1000001c <_ftext-0x10000fe4>
20002038:	0007a703          	lw	a4,0(a5)
2000203c:	100007b7          	lui	a5,0x10000
20002040:	02478793          	addi	a5,a5,36 # 10000024 <_ftext-0x10000fdc>
20002044:	0007a783          	lw	a5,0(a5)
20002048:	02f747b3          	div	a5,a4,a5
2000204c:	fef42423          	sw	a5,-24(s0)
20002050:	fe842703          	lw	a4,-24(s0)
20002054:	fec42783          	lw	a5,-20(s0)
20002058:	40f707b3          	sub	a5,a4,a5
2000205c:	00078713          	mv	a4,a5
20002060:	0000c7b7          	lui	a5,0xc
20002064:	34f78793          	addi	a5,a5,847 # c34f <_ftext-0x1fff4cb1>
20002068:	f8e7fae3          	bgeu	a5,a4,20001ffc <p3+0x1c>
2000206c:	200057b7          	lui	a5,0x20005
20002070:	7c078513          	addi	a0,a5,1984 # 200057c0 <main+0x230>
20002074:	83cff0ef          	jal	ra,200010b0 <print>
20002078:	00000693          	li	a3,0
2000207c:	00000613          	li	a2,0
20002080:	00000593          	li	a1,0
20002084:	ffa00513          	li	a0,-6
20002088:	1a8030ef          	jal	ra,20005230 <SYSCALL>
2000208c:	00050793          	mv	a5,a0
20002090:	fef42023          	sw	a5,-32(s0)
20002094:	fe042223          	sw	zero,-28(s0)
20002098:	0240006f          	j	200020bc <p3+0xdc>
2000209c:	00000693          	li	a3,0
200020a0:	00000613          	li	a2,0
200020a4:	00000593          	li	a1,0
200020a8:	ff900513          	li	a0,-7
200020ac:	184030ef          	jal	ra,20005230 <SYSCALL>
200020b0:	fe442783          	lw	a5,-28(s0)
200020b4:	00178793          	addi	a5,a5,1
200020b8:	fef42223          	sw	a5,-28(s0)
200020bc:	fe442703          	lw	a4,-28(s0)
200020c0:	00900793          	li	a5,9
200020c4:	fce7dce3          	bge	a5,a4,2000209c <p3+0xbc>
200020c8:	00000693          	li	a3,0
200020cc:	00000613          	li	a2,0
200020d0:	00000593          	li	a1,0
200020d4:	ffa00513          	li	a0,-6
200020d8:	158030ef          	jal	ra,20005230 <SYSCALL>
200020dc:	00050793          	mv	a5,a0
200020e0:	fcf42e23          	sw	a5,-36(s0)
200020e4:	00000693          	li	a3,0
200020e8:	00000613          	li	a2,0
200020ec:	00000593          	li	a1,0
200020f0:	ff700513          	li	a0,-9
200020f4:	13c030ef          	jal	ra,20005230 <SYSCALL>
200020f8:	00050793          	mv	a5,a0
200020fc:	fcf42c23          	sw	a5,-40(s0)
20002100:	200067b7          	lui	a5,0x20006
20002104:	0507a783          	lw	a5,80(a5) # 20006050 <p3pid>
20002108:	fd842703          	lw	a4,-40(s0)
2000210c:	00f70a63          	beq	a4,a5,20002120 <p3+0x140>
20002110:	200057b7          	lui	a5,0x20005
20002114:	7d478513          	addi	a0,a5,2004 # 200057d4 <main+0x244>
20002118:	f99fe0ef          	jal	ra,200010b0 <print>
2000211c:	240030ef          	jal	ra,2000535c <PANIC>
20002120:	200067b7          	lui	a5,0x20006
20002124:	03078793          	addi	a5,a5,48 # 20006030 <sem_endp3>
20002128:	00000693          	li	a3,0
2000212c:	00000613          	li	a2,0
20002130:	00078593          	mv	a1,a5
20002134:	ffc00513          	li	a0,-4
20002138:	0f8030ef          	jal	ra,20005230 <SYSCALL>
2000213c:	00000693          	li	a3,0
20002140:	00000613          	li	a2,0
20002144:	00000593          	li	a1,0
20002148:	ffe00513          	li	a0,-2
2000214c:	0e4030ef          	jal	ra,20005230 <SYSCALL>
20002150:	200057b7          	lui	a5,0x20005
20002154:	7f878513          	addi	a0,a5,2040 # 200057f8 <main+0x268>
20002158:	f59fe0ef          	jal	ra,200010b0 <print>
2000215c:	200030ef          	jal	ra,2000535c <PANIC>
20002160:	00000013          	nop
20002164:	02c12083          	lw	ra,44(sp)
20002168:	02812403          	lw	s0,40(sp)
2000216c:	03010113          	addi	sp,sp,48
20002170:	00008067          	ret

20002174 <p4>:
20002174:	fe010113          	addi	sp,sp,-32
20002178:	00112e23          	sw	ra,28(sp)
2000217c:	00812c23          	sw	s0,24(sp)
20002180:	02010413          	addi	s0,sp,32
20002184:	200067b7          	lui	a5,0x20006
20002188:	00c7a783          	lw	a5,12(a5) # 2000600c <p4inc>
2000218c:	00100713          	li	a4,1
20002190:	00e78863          	beq	a5,a4,200021a0 <p4+0x2c>
20002194:	00200713          	li	a4,2
20002198:	02e78663          	beq	a5,a4,200021c4 <p4+0x50>
2000219c:	0380006f          	j	200021d4 <p4+0x60>
200021a0:	200067b7          	lui	a5,0x20006
200021a4:	81478513          	addi	a0,a5,-2028 # 20005814 <main+0x284>
200021a8:	f09fe0ef          	jal	ra,200010b0 <print>
200021ac:	200067b7          	lui	a5,0x20006
200021b0:	00c7a783          	lw	a5,12(a5) # 2000600c <p4inc>
200021b4:	00178713          	addi	a4,a5,1
200021b8:	200067b7          	lui	a5,0x20006
200021bc:	00e7a623          	sw	a4,12(a5) # 2000600c <p4inc>
200021c0:	0140006f          	j	200021d4 <p4+0x60>
200021c4:	200067b7          	lui	a5,0x20006
200021c8:	83478513          	addi	a0,a5,-1996 # 20005834 <main+0x2a4>
200021cc:	ee5fe0ef          	jal	ra,200010b0 <print>
200021d0:	00000013          	nop
200021d4:	00000693          	li	a3,0
200021d8:	00000613          	li	a2,0
200021dc:	00000593          	li	a1,0
200021e0:	ff700513          	li	a0,-9
200021e4:	04c030ef          	jal	ra,20005230 <SYSCALL>
200021e8:	00050793          	mv	a5,a0
200021ec:	fef42623          	sw	a5,-20(s0)
200021f0:	200067b7          	lui	a5,0x20006
200021f4:	0547a783          	lw	a5,84(a5) # 20006054 <p4pid>
200021f8:	fec42703          	lw	a4,-20(s0)
200021fc:	00f70a63          	beq	a4,a5,20002210 <p4+0x9c>
20002200:	200067b7          	lui	a5,0x20006
20002204:	85878513          	addi	a0,a5,-1960 # 20005858 <main+0x2c8>
20002208:	ea9fe0ef          	jal	ra,200010b0 <print>
2000220c:	150030ef          	jal	ra,2000535c <PANIC>
20002210:	200067b7          	lui	a5,0x20006
20002214:	03478793          	addi	a5,a5,52 # 20006034 <sem_synp4>
20002218:	00000693          	li	a3,0
2000221c:	00000613          	li	a2,0
20002220:	00078593          	mv	a1,a5
20002224:	ffc00513          	li	a0,-4
20002228:	008030ef          	jal	ra,20005230 <SYSCALL>
2000222c:	200067b7          	lui	a5,0x20006
20002230:	00878793          	addi	a5,a5,8 # 20006008 <sem_blkp4>
20002234:	00000693          	li	a3,0
20002238:	00000613          	li	a2,0
2000223c:	00078593          	mv	a1,a5
20002240:	ffd00513          	li	a0,-3
20002244:	7ed020ef          	jal	ra,20005230 <SYSCALL>
20002248:	200067b7          	lui	a5,0x20006
2000224c:	03478793          	addi	a5,a5,52 # 20006034 <sem_synp4>
20002250:	00000693          	li	a3,0
20002254:	00000613          	li	a2,0
20002258:	00078593          	mv	a1,a5
2000225c:	ffd00513          	li	a0,-3
20002260:	7d1020ef          	jal	ra,20005230 <SYSCALL>
20002264:	200067b7          	lui	a5,0x20006
20002268:	22c78793          	addi	a5,a5,556 # 2000622c <p4state>
2000226c:	0787a783          	lw	a5,120(a5)
20002270:	c0078713          	addi	a4,a5,-1024
20002274:	200067b7          	lui	a5,0x20006
20002278:	22c78793          	addi	a5,a5,556 # 2000622c <p4state>
2000227c:	06e7ac23          	sw	a4,120(a5)
20002280:	200067b7          	lui	a5,0x20006
20002284:	22c78793          	addi	a5,a5,556 # 2000622c <p4state>
20002288:	00000693          	li	a3,0
2000228c:	00000613          	li	a2,0
20002290:	00078593          	mv	a1,a5
20002294:	fff00513          	li	a0,-1
20002298:	799020ef          	jal	ra,20005230 <SYSCALL>
2000229c:	00050793          	mv	a5,a0
200022a0:	00078713          	mv	a4,a5
200022a4:	200067b7          	lui	a5,0x20006
200022a8:	04e7aa23          	sw	a4,84(a5) # 20006054 <p4pid>
200022ac:	200067b7          	lui	a5,0x20006
200022b0:	03478793          	addi	a5,a5,52 # 20006034 <sem_synp4>
200022b4:	00000693          	li	a3,0
200022b8:	00000613          	li	a2,0
200022bc:	00078593          	mv	a1,a5
200022c0:	ffd00513          	li	a0,-3
200022c4:	76d020ef          	jal	ra,20005230 <SYSCALL>
200022c8:	200067b7          	lui	a5,0x20006
200022cc:	87c78513          	addi	a0,a5,-1924 # 2000587c <main+0x2ec>
200022d0:	de1fe0ef          	jal	ra,200010b0 <print>
200022d4:	200067b7          	lui	a5,0x20006
200022d8:	03878793          	addi	a5,a5,56 # 20006038 <sem_endp4>
200022dc:	00000693          	li	a3,0
200022e0:	00000613          	li	a2,0
200022e4:	00078593          	mv	a1,a5
200022e8:	ffc00513          	li	a0,-4
200022ec:	745020ef          	jal	ra,20005230 <SYSCALL>
200022f0:	00000693          	li	a3,0
200022f4:	00000613          	li	a2,0
200022f8:	00000593          	li	a1,0
200022fc:	ffe00513          	li	a0,-2
20002300:	731020ef          	jal	ra,20005230 <SYSCALL>
20002304:	200067b7          	lui	a5,0x20006
20002308:	88878513          	addi	a0,a5,-1912 # 20005888 <main+0x2f8>
2000230c:	da5fe0ef          	jal	ra,200010b0 <print>
20002310:	04c030ef          	jal	ra,2000535c <PANIC>
20002314:	00000013          	nop
20002318:	01c12083          	lw	ra,28(sp)
2000231c:	01812403          	lw	s0,24(sp)
20002320:	02010113          	addi	sp,sp,32
20002324:	00008067          	ret

20002328 <p5gen>:
20002328:	fe010113          	addi	sp,sp,-32
2000232c:	00112e23          	sw	ra,28(sp)
20002330:	00812c23          	sw	s0,24(sp)
20002334:	02010413          	addi	s0,sp,32
20002338:	200077b7          	lui	a5,0x20007
2000233c:	a6078793          	addi	a5,a5,-1440 # 20006a60 <pFiveSupport>
20002340:	09c7a783          	lw	a5,156(a5)
20002344:	fef42623          	sw	a5,-20(s0)
20002348:	fec42783          	lw	a5,-20(s0)
2000234c:	0027d793          	srli	a5,a5,0x2
20002350:	03f7f793          	andi	a5,a5,63
20002354:	fef42623          	sw	a5,-20(s0)
20002358:	fec42703          	lw	a4,-20(s0)
2000235c:	00a00793          	li	a5,10
20002360:	06f70c63          	beq	a4,a5,200023d8 <p5gen+0xb0>
20002364:	fec42703          	lw	a4,-20(s0)
20002368:	00a00793          	li	a5,10
2000236c:	10e7ee63          	bltu	a5,a4,20002488 <p5gen+0x160>
20002370:	fec42703          	lw	a4,-20(s0)
20002374:	00800793          	li	a5,8
20002378:	10f70463          	beq	a4,a5,20002480 <p5gen+0x158>
2000237c:	fec42703          	lw	a4,-20(s0)
20002380:	00800793          	li	a5,8
20002384:	10e7e263          	bltu	a5,a4,20002488 <p5gen+0x160>
20002388:	fec42703          	lw	a4,-20(s0)
2000238c:	00400793          	li	a5,4
20002390:	08f70e63          	beq	a4,a5,2000242c <p5gen+0x104>
20002394:	fec42703          	lw	a4,-20(s0)
20002398:	00600793          	li	a5,6
2000239c:	0ef71663          	bne	a4,a5,20002488 <p5gen+0x160>
200023a0:	200067b7          	lui	a5,0x20006
200023a4:	8a478513          	addi	a0,a5,-1884 # 200058a4 <main+0x314>
200023a8:	d09fe0ef          	jal	ra,200010b0 <print>
200023ac:	200027b7          	lui	a5,0x20002
200023b0:	66878713          	addi	a4,a5,1640 # 20002668 <p5a>
200023b4:	200077b7          	lui	a5,0x20007
200023b8:	a6078793          	addi	a5,a5,-1440 # 20006a60 <pFiveSupport>
200023bc:	0ae7a223          	sw	a4,164(a5)
200023c0:	200027b7          	lui	a5,0x20002
200023c4:	66878713          	addi	a4,a5,1640 # 20002668 <p5a>
200023c8:	200077b7          	lui	a5,0x20007
200023cc:	a6078793          	addi	a5,a5,-1440 # 20006a60 <pFiveSupport>
200023d0:	10e7a423          	sw	a4,264(a5)
200023d4:	0c00006f          	j	20002494 <p5gen+0x16c>
200023d8:	200067b7          	lui	a5,0x20006
200023dc:	8dc78513          	addi	a0,a5,-1828 # 200058dc <main+0x34c>
200023e0:	cd1fe0ef          	jal	ra,200010b0 <print>
200023e4:	200027b7          	lui	a5,0x20002
200023e8:	6a078713          	addi	a4,a5,1696 # 200026a0 <p5b>
200023ec:	200077b7          	lui	a5,0x20007
200023f0:	a6078793          	addi	a5,a5,-1440 # 20006a60 <pFiveSupport>
200023f4:	0ae7a223          	sw	a4,164(a5)
200023f8:	200027b7          	lui	a5,0x20002
200023fc:	6a078713          	addi	a4,a5,1696 # 200026a0 <p5b>
20002400:	200077b7          	lui	a5,0x20007
20002404:	a6078793          	addi	a5,a5,-1440 # 20006a60 <pFiveSupport>
20002408:	10e7a423          	sw	a4,264(a5)
2000240c:	200077b7          	lui	a5,0x20007
20002410:	a6078793          	addi	a5,a5,-1440 # 20006a60 <pFiveSupport>
20002414:	0a07a783          	lw	a5,160(a5)
20002418:	ff77f713          	andi	a4,a5,-9
2000241c:	200077b7          	lui	a5,0x20007
20002420:	a6078793          	addi	a5,a5,-1440 # 20006a60 <pFiveSupport>
20002424:	0ae7a023          	sw	a4,160(a5)
20002428:	06c0006f          	j	20002494 <p5gen+0x16c>
2000242c:	200067b7          	lui	a5,0x20006
20002430:	8f478513          	addi	a0,a5,-1804 # 200058f4 <main+0x364>
20002434:	c7dfe0ef          	jal	ra,200010b0 <print>
20002438:	200027b7          	lui	a5,0x20002
2000243c:	6a078713          	addi	a4,a5,1696 # 200026a0 <p5b>
20002440:	200077b7          	lui	a5,0x20007
20002444:	a6078793          	addi	a5,a5,-1440 # 20006a60 <pFiveSupport>
20002448:	0ae7a223          	sw	a4,164(a5)
2000244c:	200027b7          	lui	a5,0x20002
20002450:	6a078713          	addi	a4,a5,1696 # 200026a0 <p5b>
20002454:	200077b7          	lui	a5,0x20007
20002458:	a6078793          	addi	a5,a5,-1440 # 20006a60 <pFiveSupport>
2000245c:	10e7a423          	sw	a4,264(a5)
20002460:	200077b7          	lui	a5,0x20007
20002464:	a6078793          	addi	a5,a5,-1440 # 20006a60 <pFiveSupport>
20002468:	0a07a783          	lw	a5,160(a5)
2000246c:	ff77f713          	andi	a4,a5,-9
20002470:	200077b7          	lui	a5,0x20007
20002474:	a6078793          	addi	a5,a5,-1440 # 20006a60 <pFiveSupport>
20002478:	0ae7a023          	sw	a4,160(a5)
2000247c:	0180006f          	j	20002494 <p5gen+0x16c>
20002480:	0fc000ef          	jal	ra,2000257c <p5sys>
20002484:	0100006f          	j	20002494 <p5gen+0x16c>
20002488:	200067b7          	lui	a5,0x20006
2000248c:	92c78513          	addi	a0,a5,-1748 # 2000592c <main+0x39c>
20002490:	c21fe0ef          	jal	ra,200010b0 <print>
20002494:	200077b7          	lui	a5,0x20007
20002498:	af878513          	addi	a0,a5,-1288 # 20006af8 <pFiveSupport+0x98>
2000249c:	671020ef          	jal	ra,2000530c <LDST>
200024a0:	00000013          	nop
200024a4:	01c12083          	lw	ra,28(sp)
200024a8:	01812403          	lw	s0,24(sp)
200024ac:	02010113          	addi	sp,sp,32
200024b0:	00008067          	ret

200024b4 <p5mm>:
200024b4:	fe010113          	addi	sp,sp,-32
200024b8:	00112e23          	sw	ra,28(sp)
200024bc:	00812c23          	sw	s0,24(sp)
200024c0:	02010413          	addi	s0,sp,32
200024c4:	200067b7          	lui	a5,0x20006
200024c8:	94078513          	addi	a0,a5,-1728 # 20005940 <main+0x3b0>
200024cc:	be5fe0ef          	jal	ra,200010b0 <print>
200024d0:	00000693          	li	a3,0
200024d4:	00000613          	li	a2,0
200024d8:	00000593          	li	a1,0
200024dc:	ff800513          	li	a0,-8
200024e0:	551020ef          	jal	ra,20005230 <SYSCALL>
200024e4:	00050793          	mv	a5,a0
200024e8:	fef42623          	sw	a5,-20(s0)
200024ec:	fec42703          	lw	a4,-20(s0)
200024f0:	200077b7          	lui	a5,0x20007
200024f4:	a6078793          	addi	a5,a5,-1440 # 20006a60 <pFiveSupport>
200024f8:	00f70a63          	beq	a4,a5,2000250c <p5mm+0x58>
200024fc:	200067b7          	lui	a5,0x20006
20002500:	95878513          	addi	a0,a5,-1704 # 20005958 <main+0x3c8>
20002504:	badfe0ef          	jal	ra,200010b0 <print>
20002508:	0100006f          	j	20002518 <p5mm+0x64>
2000250c:	200067b7          	lui	a5,0x20006
20002510:	97c78513          	addi	a0,a5,-1668 # 2000597c <main+0x3ec>
20002514:	b9dfe0ef          	jal	ra,200010b0 <print>
20002518:	200077b7          	lui	a5,0x20007
2000251c:	a6078793          	addi	a5,a5,-1440 # 20006a60 <pFiveSupport>
20002520:	0147a783          	lw	a5,20(a5)
20002524:	0087e713          	ori	a4,a5,8
20002528:	200077b7          	lui	a5,0x20007
2000252c:	a6078793          	addi	a5,a5,-1440 # 20006a60 <pFiveSupport>
20002530:	00e7aa23          	sw	a4,20(a5)
20002534:	200027b7          	lui	a5,0x20002
20002538:	6a078713          	addi	a4,a5,1696 # 200026a0 <p5b>
2000253c:	200077b7          	lui	a5,0x20007
20002540:	a6078793          	addi	a5,a5,-1440 # 20006a60 <pFiveSupport>
20002544:	00e7ac23          	sw	a4,24(a5)
20002548:	200027b7          	lui	a5,0x20002
2000254c:	6a078713          	addi	a4,a5,1696 # 200026a0 <p5b>
20002550:	200077b7          	lui	a5,0x20007
20002554:	a6078793          	addi	a5,a5,-1440 # 20006a60 <pFiveSupport>
20002558:	06e7ae23          	sw	a4,124(a5)
2000255c:	200077b7          	lui	a5,0x20007
20002560:	a6c78513          	addi	a0,a5,-1428 # 20006a6c <pFiveSupport+0xc>
20002564:	5a9020ef          	jal	ra,2000530c <LDST>
20002568:	00000013          	nop
2000256c:	01c12083          	lw	ra,28(sp)
20002570:	01812403          	lw	s0,24(sp)
20002574:	02010113          	addi	sp,sp,32
20002578:	00008067          	ret

2000257c <p5sys>:
2000257c:	fe010113          	addi	sp,sp,-32
20002580:	00112e23          	sw	ra,28(sp)
20002584:	00812c23          	sw	s0,24(sp)
20002588:	02010413          	addi	s0,sp,32
2000258c:	200077b7          	lui	a5,0x20007
20002590:	a6078793          	addi	a5,a5,-1440 # 20006a60 <pFiveSupport>
20002594:	0a07a783          	lw	a5,160(a5)
20002598:	fef42623          	sw	a5,-20(s0)
2000259c:	fec42783          	lw	a5,-20(s0)
200025a0:	01c79793          	slli	a5,a5,0x1c
200025a4:	01f7d793          	srli	a5,a5,0x1f
200025a8:	fef42623          	sw	a5,-20(s0)
200025ac:	fec42783          	lw	a5,-20(s0)
200025b0:	02078063          	beqz	a5,200025d0 <p5sys+0x54>
200025b4:	fec42703          	lw	a4,-20(s0)
200025b8:	00100793          	li	a5,1
200025bc:	02f71263          	bne	a4,a5,200025e0 <p5sys+0x64>
200025c0:	200067b7          	lui	a5,0x20006
200025c4:	9a078513          	addi	a0,a5,-1632 # 200059a0 <main+0x410>
200025c8:	ae9fe0ef          	jal	ra,200010b0 <print>
200025cc:	0140006f          	j	200025e0 <p5sys+0x64>
200025d0:	200067b7          	lui	a5,0x20006
200025d4:	9cc78513          	addi	a0,a5,-1588 # 200059cc <main+0x43c>
200025d8:	ad9fe0ef          	jal	ra,200010b0 <print>
200025dc:	00000013          	nop
200025e0:	200077b7          	lui	a5,0x20007
200025e4:	a6078793          	addi	a5,a5,-1440 # 20006a60 <pFiveSupport>
200025e8:	0a47a783          	lw	a5,164(a5)
200025ec:	00478713          	addi	a4,a5,4
200025f0:	200077b7          	lui	a5,0x20007
200025f4:	a6078793          	addi	a5,a5,-1440 # 20006a60 <pFiveSupport>
200025f8:	0ae7a223          	sw	a4,164(a5)
200025fc:	200077b7          	lui	a5,0x20007
20002600:	af878513          	addi	a0,a5,-1288 # 20006af8 <pFiveSupport+0x98>
20002604:	509020ef          	jal	ra,2000530c <LDST>
20002608:	00000013          	nop
2000260c:	01c12083          	lw	ra,28(sp)
20002610:	01812403          	lw	s0,24(sp)
20002614:	02010113          	addi	sp,sp,32
20002618:	00008067          	ret

2000261c <p5>:
2000261c:	ff010113          	addi	sp,sp,-16
20002620:	00112623          	sw	ra,12(sp)
20002624:	00812423          	sw	s0,8(sp)
20002628:	01010413          	addi	s0,sp,16
2000262c:	200067b7          	lui	a5,0x20006
20002630:	9fc78513          	addi	a0,a5,-1540 # 200059fc <main+0x46c>
20002634:	a7dfe0ef          	jal	ra,200010b0 <print>
20002638:	200067b7          	lui	a5,0x20006
2000263c:	0707a783          	lw	a5,112(a5) # 20006070 <p5MemLocation>
20002640:	0007a703          	lw	a4,0(a5)
20002644:	200067b7          	lui	a5,0x20006
20002648:	0707a783          	lw	a5,112(a5) # 20006070 <p5MemLocation>
2000264c:	00170713          	addi	a4,a4,1
20002650:	00e7a023          	sw	a4,0(a5)
20002654:	00000013          	nop
20002658:	00c12083          	lw	ra,12(sp)
2000265c:	00812403          	lw	s0,8(sp)
20002660:	01010113          	addi	sp,sp,16
20002664:	00008067          	ret

20002668 <p5a>:
20002668:	ff010113          	addi	sp,sp,-16
2000266c:	00812623          	sw	s0,12(sp)
20002670:	01010413          	addi	s0,sp,16
20002674:	200067b7          	lui	a5,0x20006
20002678:	80000737          	lui	a4,0x80000
2000267c:	06e7a823          	sw	a4,112(a5) # 20006070 <p5MemLocation>
20002680:	200067b7          	lui	a5,0x20006
20002684:	0707a783          	lw	a5,112(a5) # 20006070 <p5MemLocation>
20002688:	02a00713          	li	a4,42
2000268c:	00e7a023          	sw	a4,0(a5)
20002690:	00000013          	nop
20002694:	00c12403          	lw	s0,12(sp)
20002698:	01010113          	addi	sp,sp,16
2000269c:	00008067          	ret

200026a0 <p5b>:
200026a0:	fe010113          	addi	sp,sp,-32
200026a4:	00112e23          	sw	ra,28(sp)
200026a8:	00812c23          	sw	s0,24(sp)
200026ac:	02010413          	addi	s0,sp,32
200026b0:	00000693          	li	a3,0
200026b4:	00000613          	li	a2,0
200026b8:	00000593          	li	a1,0
200026bc:	00100513          	li	a0,1
200026c0:	371020ef          	jal	ra,20005230 <SYSCALL>
200026c4:	200067b7          	lui	a5,0x20006
200026c8:	03878793          	addi	a5,a5,56 # 20006038 <sem_endp4>
200026cc:	00000693          	li	a3,0
200026d0:	00000613          	li	a2,0
200026d4:	00078593          	mv	a1,a5
200026d8:	ffd00513          	li	a0,-3
200026dc:	355020ef          	jal	ra,20005230 <SYSCALL>
200026e0:	fe042623          	sw	zero,-20(s0)
200026e4:	fe042423          	sw	zero,-24(s0)
200026e8:	0580006f          	j	20002740 <p5b+0xa0>
200026ec:	100007b7          	lui	a5,0x10000
200026f0:	01c78793          	addi	a5,a5,28 # 1000001c <_ftext-0x10000fe4>
200026f4:	0007a703          	lw	a4,0(a5)
200026f8:	100007b7          	lui	a5,0x10000
200026fc:	02478793          	addi	a5,a5,36 # 10000024 <_ftext-0x10000fdc>
20002700:	0007a783          	lw	a5,0(a5)
20002704:	02f747b3          	div	a5,a4,a5
20002708:	fef42623          	sw	a5,-20(s0)
2000270c:	00000693          	li	a3,0
20002710:	00000613          	li	a2,0
20002714:	00000593          	li	a1,0
20002718:	ff900513          	li	a0,-7
2000271c:	315020ef          	jal	ra,20005230 <SYSCALL>
20002720:	100007b7          	lui	a5,0x10000
20002724:	01c78793          	addi	a5,a5,28 # 1000001c <_ftext-0x10000fe4>
20002728:	0007a703          	lw	a4,0(a5)
2000272c:	100007b7          	lui	a5,0x10000
20002730:	02478793          	addi	a5,a5,36 # 10000024 <_ftext-0x10000fdc>
20002734:	0007a783          	lw	a5,0(a5)
20002738:	02f747b3          	div	a5,a4,a5
2000273c:	fef42423          	sw	a5,-24(s0)
20002740:	fe842703          	lw	a4,-24(s0)
20002744:	fec42783          	lw	a5,-20(s0)
20002748:	40f707b3          	sub	a5,a4,a5
2000274c:	00078713          	mv	a4,a5
20002750:	0000c7b7          	lui	a5,0xc
20002754:	34f78793          	addi	a5,a5,847 # c34f <_ftext-0x1fff4cb1>
20002758:	f8e7fae3          	bgeu	a5,a4,200026ec <p5b+0x4c>
2000275c:	200067b7          	lui	a5,0x20006
20002760:	00878793          	addi	a5,a5,8 # 20006008 <sem_blkp4>
20002764:	00000693          	li	a3,0
20002768:	00000613          	li	a2,0
2000276c:	00078593          	mv	a1,a5
20002770:	ffc00513          	li	a0,-4
20002774:	2bd020ef          	jal	ra,20005230 <SYSCALL>
20002778:	200067b7          	lui	a5,0x20006
2000277c:	03c78793          	addi	a5,a5,60 # 2000603c <sem_endp5>
20002780:	00000693          	li	a3,0
20002784:	00000613          	li	a2,0
20002788:	00078593          	mv	a1,a5
2000278c:	ffc00513          	li	a0,-4
20002790:	2a1020ef          	jal	ra,20005230 <SYSCALL>
20002794:	00000693          	li	a3,0
20002798:	00000613          	li	a2,0
2000279c:	00000593          	li	a1,0
200027a0:	ffe00513          	li	a0,-2
200027a4:	28d020ef          	jal	ra,20005230 <SYSCALL>
200027a8:	200067b7          	lui	a5,0x20006
200027ac:	a0878513          	addi	a0,a5,-1528 # 20005a08 <main+0x478>
200027b0:	901fe0ef          	jal	ra,200010b0 <print>
200027b4:	3a9020ef          	jal	ra,2000535c <PANIC>
200027b8:	00000013          	nop
200027bc:	01c12083          	lw	ra,28(sp)
200027c0:	01812403          	lw	s0,24(sp)
200027c4:	02010113          	addi	sp,sp,32
200027c8:	00008067          	ret

200027cc <p6>:
200027cc:	ff010113          	addi	sp,sp,-16
200027d0:	00112623          	sw	ra,12(sp)
200027d4:	00812423          	sw	s0,8(sp)
200027d8:	01010413          	addi	s0,sp,16
200027dc:	200067b7          	lui	a5,0x20006
200027e0:	a2478513          	addi	a0,a5,-1500 # 20005a24 <main+0x494>
200027e4:	8cdfe0ef          	jal	ra,200010b0 <print>
200027e8:	00000693          	li	a3,0
200027ec:	00000613          	li	a2,0
200027f0:	00000593          	li	a1,0
200027f4:	00100513          	li	a0,1
200027f8:	239020ef          	jal	ra,20005230 <SYSCALL>
200027fc:	200067b7          	lui	a5,0x20006
20002800:	a3078513          	addi	a0,a5,-1488 # 20005a30 <main+0x4a0>
20002804:	8adfe0ef          	jal	ra,200010b0 <print>
20002808:	355020ef          	jal	ra,2000535c <PANIC>
2000280c:	00000013          	nop
20002810:	00c12083          	lw	ra,12(sp)
20002814:	00812403          	lw	s0,8(sp)
20002818:	01010113          	addi	sp,sp,16
2000281c:	00008067          	ret

20002820 <p7>:
20002820:	ff010113          	addi	sp,sp,-16
20002824:	00112623          	sw	ra,12(sp)
20002828:	00812423          	sw	s0,8(sp)
2000282c:	01010413          	addi	s0,sp,16
20002830:	200067b7          	lui	a5,0x20006
20002834:	a6478513          	addi	a0,a5,-1436 # 20005a64 <main+0x4d4>
20002838:	879fe0ef          	jal	ra,200010b0 <print>
2000283c:	fff00793          	li	a5,-1
20002840:	0007a023          	sw	zero,0(a5)
20002844:	200067b7          	lui	a5,0x20006
20002848:	a7078513          	addi	a0,a5,-1424 # 20005a70 <main+0x4e0>
2000284c:	865fe0ef          	jal	ra,200010b0 <print>
20002850:	30d020ef          	jal	ra,2000535c <PANIC>
20002854:	00000013          	nop
20002858:	00c12083          	lw	ra,12(sp)
2000285c:	00812403          	lw	s0,8(sp)
20002860:	01010113          	addi	sp,sp,16
20002864:	00008067          	ret

20002868 <p8root>:
20002868:	fe010113          	addi	sp,sp,-32
2000286c:	00112e23          	sw	ra,28(sp)
20002870:	00812c23          	sw	s0,24(sp)
20002874:	02010413          	addi	s0,sp,32
20002878:	200067b7          	lui	a5,0x20006
2000287c:	aa878513          	addi	a0,a5,-1368 # 20005aa8 <main+0x518>
20002880:	831fe0ef          	jal	ra,200010b0 <print>
20002884:	200067b7          	lui	a5,0x20006
20002888:	4e878793          	addi	a5,a5,1256 # 200064e8 <child1state>
2000288c:	00000693          	li	a3,0
20002890:	00000613          	li	a2,0
20002894:	00078593          	mv	a1,a5
20002898:	fff00513          	li	a0,-1
2000289c:	195020ef          	jal	ra,20005230 <SYSCALL>
200028a0:	200067b7          	lui	a5,0x20006
200028a4:	57478793          	addi	a5,a5,1396 # 20006574 <child2state>
200028a8:	00000693          	li	a3,0
200028ac:	00000613          	li	a2,0
200028b0:	00078593          	mv	a1,a5
200028b4:	fff00513          	li	a0,-1
200028b8:	179020ef          	jal	ra,20005230 <SYSCALL>
200028bc:	fe042623          	sw	zero,-20(s0)
200028c0:	0380006f          	j	200028f8 <p8root+0x90>
200028c4:	fec42783          	lw	a5,-20(s0)
200028c8:	00279713          	slli	a4,a5,0x2
200028cc:	200067b7          	lui	a5,0x20006
200028d0:	10478793          	addi	a5,a5,260 # 20006104 <sem_endcreate>
200028d4:	00f707b3          	add	a5,a4,a5
200028d8:	00000693          	li	a3,0
200028dc:	00000613          	li	a2,0
200028e0:	00078593          	mv	a1,a5
200028e4:	ffd00513          	li	a0,-3
200028e8:	149020ef          	jal	ra,20005230 <SYSCALL>
200028ec:	fec42783          	lw	a5,-20(s0)
200028f0:	00178793          	addi	a5,a5,1
200028f4:	fef42623          	sw	a5,-20(s0)
200028f8:	fec42703          	lw	a4,-20(s0)
200028fc:	00300793          	li	a5,3
20002900:	fce7d2e3          	bge	a5,a4,200028c4 <p8root+0x5c>
20002904:	200067b7          	lui	a5,0x20006
20002908:	04078793          	addi	a5,a5,64 # 20006040 <sem_endp8>
2000290c:	00000693          	li	a3,0
20002910:	00000613          	li	a2,0
20002914:	00078593          	mv	a1,a5
20002918:	ffc00513          	li	a0,-4
2000291c:	115020ef          	jal	ra,20005230 <SYSCALL>
20002920:	00000693          	li	a3,0
20002924:	00000613          	li	a2,0
20002928:	00000593          	li	a1,0
2000292c:	ffe00513          	li	a0,-2
20002930:	101020ef          	jal	ra,20005230 <SYSCALL>
20002934:	00000013          	nop
20002938:	01c12083          	lw	ra,28(sp)
2000293c:	01812403          	lw	s0,24(sp)
20002940:	02010113          	addi	sp,sp,32
20002944:	00008067          	ret

20002948 <child1>:
20002948:	fe010113          	addi	sp,sp,-32
2000294c:	00112e23          	sw	ra,28(sp)
20002950:	00812c23          	sw	s0,24(sp)
20002954:	02010413          	addi	s0,sp,32
20002958:	200067b7          	lui	a5,0x20006
2000295c:	ab878513          	addi	a0,a5,-1352 # 20005ab8 <main+0x528>
20002960:	f50fe0ef          	jal	ra,200010b0 <print>
20002964:	00000693          	li	a3,0
20002968:	00000613          	li	a2,0
2000296c:	00100593          	li	a1,1
20002970:	ff700513          	li	a0,-9
20002974:	0bd020ef          	jal	ra,20005230 <SYSCALL>
20002978:	00050793          	mv	a5,a0
2000297c:	fef42623          	sw	a5,-20(s0)
20002980:	200067b7          	lui	a5,0x20006
20002984:	0587a783          	lw	a5,88(a5) # 20006058 <p8pid>
20002988:	fec42703          	lw	a4,-20(s0)
2000298c:	00f70a63          	beq	a4,a5,200029a0 <child1+0x58>
20002990:	200067b7          	lui	a5,0x20006
20002994:	ac878513          	addi	a0,a5,-1336 # 20005ac8 <main+0x538>
20002998:	f18fe0ef          	jal	ra,200010b0 <print>
2000299c:	1c1020ef          	jal	ra,2000535c <PANIC>
200029a0:	200067b7          	lui	a5,0x20006
200029a4:	60078793          	addi	a5,a5,1536 # 20006600 <gchild1state>
200029a8:	00000693          	li	a3,0
200029ac:	00000613          	li	a2,0
200029b0:	00078593          	mv	a1,a5
200029b4:	fff00513          	li	a0,-1
200029b8:	079020ef          	jal	ra,20005230 <SYSCALL>
200029bc:	200067b7          	lui	a5,0x20006
200029c0:	68c78793          	addi	a5,a5,1676 # 2000668c <gchild2state>
200029c4:	00000693          	li	a3,0
200029c8:	00000613          	li	a2,0
200029cc:	00078593          	mv	a1,a5
200029d0:	fff00513          	li	a0,-1
200029d4:	05d020ef          	jal	ra,20005230 <SYSCALL>
200029d8:	200067b7          	lui	a5,0x20006
200029dc:	04478793          	addi	a5,a5,68 # 20006044 <sem_blkp8>
200029e0:	00000693          	li	a3,0
200029e4:	00000613          	li	a2,0
200029e8:	00078593          	mv	a1,a5
200029ec:	ffd00513          	li	a0,-3
200029f0:	041020ef          	jal	ra,20005230 <SYSCALL>
200029f4:	00000013          	nop
200029f8:	01c12083          	lw	ra,28(sp)
200029fc:	01812403          	lw	s0,24(sp)
20002a00:	02010113          	addi	sp,sp,32
20002a04:	00008067          	ret

20002a08 <child2>:
20002a08:	fe010113          	addi	sp,sp,-32
20002a0c:	00112e23          	sw	ra,28(sp)
20002a10:	00812c23          	sw	s0,24(sp)
20002a14:	02010413          	addi	s0,sp,32
20002a18:	200067b7          	lui	a5,0x20006
20002a1c:	b0078513          	addi	a0,a5,-1280 # 20005b00 <main+0x570>
20002a20:	e90fe0ef          	jal	ra,200010b0 <print>
20002a24:	00000693          	li	a3,0
20002a28:	00000613          	li	a2,0
20002a2c:	00100593          	li	a1,1
20002a30:	ff700513          	li	a0,-9
20002a34:	7fc020ef          	jal	ra,20005230 <SYSCALL>
20002a38:	00050793          	mv	a5,a0
20002a3c:	fef42623          	sw	a5,-20(s0)
20002a40:	200067b7          	lui	a5,0x20006
20002a44:	0587a783          	lw	a5,88(a5) # 20006058 <p8pid>
20002a48:	fec42703          	lw	a4,-20(s0)
20002a4c:	00f70a63          	beq	a4,a5,20002a60 <child2+0x58>
20002a50:	200067b7          	lui	a5,0x20006
20002a54:	ac878513          	addi	a0,a5,-1336 # 20005ac8 <main+0x538>
20002a58:	e58fe0ef          	jal	ra,200010b0 <print>
20002a5c:	101020ef          	jal	ra,2000535c <PANIC>
20002a60:	200067b7          	lui	a5,0x20006
20002a64:	71878793          	addi	a5,a5,1816 # 20006718 <gchild3state>
20002a68:	00000693          	li	a3,0
20002a6c:	00000613          	li	a2,0
20002a70:	00078593          	mv	a1,a5
20002a74:	fff00513          	li	a0,-1
20002a78:	7b8020ef          	jal	ra,20005230 <SYSCALL>
20002a7c:	200067b7          	lui	a5,0x20006
20002a80:	7a478793          	addi	a5,a5,1956 # 200067a4 <gchild4state>
20002a84:	00000693          	li	a3,0
20002a88:	00000613          	li	a2,0
20002a8c:	00078593          	mv	a1,a5
20002a90:	fff00513          	li	a0,-1
20002a94:	79c020ef          	jal	ra,20005230 <SYSCALL>
20002a98:	200067b7          	lui	a5,0x20006
20002a9c:	04478793          	addi	a5,a5,68 # 20006044 <sem_blkp8>
20002aa0:	00000693          	li	a3,0
20002aa4:	00000613          	li	a2,0
20002aa8:	00078593          	mv	a1,a5
20002aac:	ffd00513          	li	a0,-3
20002ab0:	780020ef          	jal	ra,20005230 <SYSCALL>
20002ab4:	00000013          	nop
20002ab8:	01c12083          	lw	ra,28(sp)
20002abc:	01812403          	lw	s0,24(sp)
20002ac0:	02010113          	addi	sp,sp,32
20002ac4:	00008067          	ret

20002ac8 <p8leaf1>:
20002ac8:	ff010113          	addi	sp,sp,-16
20002acc:	00112623          	sw	ra,12(sp)
20002ad0:	00812423          	sw	s0,8(sp)
20002ad4:	01010413          	addi	s0,sp,16
20002ad8:	200067b7          	lui	a5,0x20006
20002adc:	b1078513          	addi	a0,a5,-1264 # 20005b10 <main+0x580>
20002ae0:	dd0fe0ef          	jal	ra,200010b0 <print>
20002ae4:	200067b7          	lui	a5,0x20006
20002ae8:	10478793          	addi	a5,a5,260 # 20006104 <sem_endcreate>
20002aec:	00000693          	li	a3,0
20002af0:	00000613          	li	a2,0
20002af4:	00078593          	mv	a1,a5
20002af8:	ffc00513          	li	a0,-4
20002afc:	734020ef          	jal	ra,20005230 <SYSCALL>
20002b00:	200067b7          	lui	a5,0x20006
20002b04:	04478793          	addi	a5,a5,68 # 20006044 <sem_blkp8>
20002b08:	00000693          	li	a3,0
20002b0c:	00000613          	li	a2,0
20002b10:	00078593          	mv	a1,a5
20002b14:	ffd00513          	li	a0,-3
20002b18:	718020ef          	jal	ra,20005230 <SYSCALL>
20002b1c:	00000013          	nop
20002b20:	00c12083          	lw	ra,12(sp)
20002b24:	00812403          	lw	s0,8(sp)
20002b28:	01010113          	addi	sp,sp,16
20002b2c:	00008067          	ret

20002b30 <p8leaf2>:
20002b30:	ff010113          	addi	sp,sp,-16
20002b34:	00112623          	sw	ra,12(sp)
20002b38:	00812423          	sw	s0,8(sp)
20002b3c:	01010413          	addi	s0,sp,16
20002b40:	200067b7          	lui	a5,0x20006
20002b44:	b2c78513          	addi	a0,a5,-1236 # 20005b2c <main+0x59c>
20002b48:	d68fe0ef          	jal	ra,200010b0 <print>
20002b4c:	200067b7          	lui	a5,0x20006
20002b50:	10878793          	addi	a5,a5,264 # 20006108 <sem_endcreate+0x4>
20002b54:	00000693          	li	a3,0
20002b58:	00000613          	li	a2,0
20002b5c:	00078593          	mv	a1,a5
20002b60:	ffc00513          	li	a0,-4
20002b64:	6cc020ef          	jal	ra,20005230 <SYSCALL>
20002b68:	200067b7          	lui	a5,0x20006
20002b6c:	04478793          	addi	a5,a5,68 # 20006044 <sem_blkp8>
20002b70:	00000693          	li	a3,0
20002b74:	00000613          	li	a2,0
20002b78:	00078593          	mv	a1,a5
20002b7c:	ffd00513          	li	a0,-3
20002b80:	6b0020ef          	jal	ra,20005230 <SYSCALL>
20002b84:	00000013          	nop
20002b88:	00c12083          	lw	ra,12(sp)
20002b8c:	00812403          	lw	s0,8(sp)
20002b90:	01010113          	addi	sp,sp,16
20002b94:	00008067          	ret

20002b98 <p8leaf3>:
20002b98:	ff010113          	addi	sp,sp,-16
20002b9c:	00112623          	sw	ra,12(sp)
20002ba0:	00812423          	sw	s0,8(sp)
20002ba4:	01010413          	addi	s0,sp,16
20002ba8:	200067b7          	lui	a5,0x20006
20002bac:	b4878513          	addi	a0,a5,-1208 # 20005b48 <main+0x5b8>
20002bb0:	d00fe0ef          	jal	ra,200010b0 <print>
20002bb4:	200067b7          	lui	a5,0x20006
20002bb8:	10c78793          	addi	a5,a5,268 # 2000610c <sem_endcreate+0x8>
20002bbc:	00000693          	li	a3,0
20002bc0:	00000613          	li	a2,0
20002bc4:	00078593          	mv	a1,a5
20002bc8:	ffc00513          	li	a0,-4
20002bcc:	664020ef          	jal	ra,20005230 <SYSCALL>
20002bd0:	200067b7          	lui	a5,0x20006
20002bd4:	04478793          	addi	a5,a5,68 # 20006044 <sem_blkp8>
20002bd8:	00000693          	li	a3,0
20002bdc:	00000613          	li	a2,0
20002be0:	00078593          	mv	a1,a5
20002be4:	ffd00513          	li	a0,-3
20002be8:	648020ef          	jal	ra,20005230 <SYSCALL>
20002bec:	00000013          	nop
20002bf0:	00c12083          	lw	ra,12(sp)
20002bf4:	00812403          	lw	s0,8(sp)
20002bf8:	01010113          	addi	sp,sp,16
20002bfc:	00008067          	ret

20002c00 <p8leaf4>:
20002c00:	ff010113          	addi	sp,sp,-16
20002c04:	00112623          	sw	ra,12(sp)
20002c08:	00812423          	sw	s0,8(sp)
20002c0c:	01010413          	addi	s0,sp,16
20002c10:	200067b7          	lui	a5,0x20006
20002c14:	b6478513          	addi	a0,a5,-1180 # 20005b64 <main+0x5d4>
20002c18:	c98fe0ef          	jal	ra,200010b0 <print>
20002c1c:	200067b7          	lui	a5,0x20006
20002c20:	11078793          	addi	a5,a5,272 # 20006110 <sem_endcreate+0xc>
20002c24:	00000693          	li	a3,0
20002c28:	00000613          	li	a2,0
20002c2c:	00078593          	mv	a1,a5
20002c30:	ffc00513          	li	a0,-4
20002c34:	5fc020ef          	jal	ra,20005230 <SYSCALL>
20002c38:	200067b7          	lui	a5,0x20006
20002c3c:	04478793          	addi	a5,a5,68 # 20006044 <sem_blkp8>
20002c40:	00000693          	li	a3,0
20002c44:	00000613          	li	a2,0
20002c48:	00078593          	mv	a1,a5
20002c4c:	ffd00513          	li	a0,-3
20002c50:	5e0020ef          	jal	ra,20005230 <SYSCALL>
20002c54:	00000013          	nop
20002c58:	00c12083          	lw	ra,12(sp)
20002c5c:	00812403          	lw	s0,8(sp)
20002c60:	01010113          	addi	sp,sp,16
20002c64:	00008067          	ret

20002c68 <p9>:
20002c68:	ff010113          	addi	sp,sp,-16
20002c6c:	00112623          	sw	ra,12(sp)
20002c70:	00812423          	sw	s0,8(sp)
20002c74:	01010413          	addi	s0,sp,16
20002c78:	200067b7          	lui	a5,0x20006
20002c7c:	b8078513          	addi	a0,a5,-1152 # 20005b80 <main+0x5f0>
20002c80:	c30fe0ef          	jal	ra,200010b0 <print>
20002c84:	200077b7          	lui	a5,0x20007
20002c88:	8bc78793          	addi	a5,a5,-1860 # 200068bc <p10state>
20002c8c:	00000693          	li	a3,0
20002c90:	00000613          	li	a2,0
20002c94:	00078593          	mv	a1,a5
20002c98:	fff00513          	li	a0,-1
20002c9c:	594020ef          	jal	ra,20005230 <SYSCALL>
20002ca0:	200067b7          	lui	a5,0x20006
20002ca4:	04878793          	addi	a5,a5,72 # 20006048 <sem_blkp9>
20002ca8:	00000693          	li	a3,0
20002cac:	00000613          	li	a2,0
20002cb0:	00078593          	mv	a1,a5
20002cb4:	ffd00513          	li	a0,-3
20002cb8:	578020ef          	jal	ra,20005230 <SYSCALL>
20002cbc:	00000013          	nop
20002cc0:	00c12083          	lw	ra,12(sp)
20002cc4:	00812403          	lw	s0,8(sp)
20002cc8:	01010113          	addi	sp,sp,16
20002ccc:	00008067          	ret

20002cd0 <p10>:
20002cd0:	fe010113          	addi	sp,sp,-32
20002cd4:	00112e23          	sw	ra,28(sp)
20002cd8:	00812c23          	sw	s0,24(sp)
20002cdc:	02010413          	addi	s0,sp,32
20002ce0:	200067b7          	lui	a5,0x20006
20002ce4:	b8c78513          	addi	a0,a5,-1140 # 20005b8c <main+0x5fc>
20002ce8:	bc8fe0ef          	jal	ra,200010b0 <print>
20002cec:	00000693          	li	a3,0
20002cf0:	00000613          	li	a2,0
20002cf4:	00100593          	li	a1,1
20002cf8:	ff700513          	li	a0,-9
20002cfc:	534020ef          	jal	ra,20005230 <SYSCALL>
20002d00:	00050793          	mv	a5,a0
20002d04:	fef42623          	sw	a5,-20(s0)
20002d08:	200067b7          	lui	a5,0x20006
20002d0c:	05c7a783          	lw	a5,92(a5) # 2000605c <p9pid>
20002d10:	fec42703          	lw	a4,-20(s0)
20002d14:	00f70a63          	beq	a4,a5,20002d28 <p10+0x58>
20002d18:	200067b7          	lui	a5,0x20006
20002d1c:	b9878513          	addi	a0,a5,-1128 # 20005b98 <main+0x608>
20002d20:	b90fe0ef          	jal	ra,200010b0 <print>
20002d24:	638020ef          	jal	ra,2000535c <PANIC>
20002d28:	fec42783          	lw	a5,-20(s0)
20002d2c:	00000693          	li	a3,0
20002d30:	00000613          	li	a2,0
20002d34:	00078593          	mv	a1,a5
20002d38:	ffe00513          	li	a0,-2
20002d3c:	4f4020ef          	jal	ra,20005230 <SYSCALL>
20002d40:	200067b7          	lui	a5,0x20006
20002d44:	bbc78513          	addi	a0,a5,-1092 # 20005bbc <main+0x62c>
20002d48:	b68fe0ef          	jal	ra,200010b0 <print>
20002d4c:	610020ef          	jal	ra,2000535c <PANIC>
20002d50:	00000013          	nop
20002d54:	01c12083          	lw	ra,28(sp)
20002d58:	01812403          	lw	s0,24(sp)
20002d5c:	02010113          	addi	sp,sp,32
20002d60:	00008067          	ret

20002d64 <hp_p1>:
20002d64:	fe010113          	addi	sp,sp,-32
20002d68:	00112e23          	sw	ra,28(sp)
20002d6c:	00812c23          	sw	s0,24(sp)
20002d70:	02010413          	addi	s0,sp,32
20002d74:	200067b7          	lui	a5,0x20006
20002d78:	be478513          	addi	a0,a5,-1052 # 20005be4 <main+0x654>
20002d7c:	b34fe0ef          	jal	ra,200010b0 <print>
20002d80:	fe042623          	sw	zero,-20(s0)
20002d84:	0240006f          	j	20002da8 <hp_p1+0x44>
20002d88:	00000693          	li	a3,0
20002d8c:	00000613          	li	a2,0
20002d90:	00000593          	li	a1,0
20002d94:	ff600513          	li	a0,-10
20002d98:	498020ef          	jal	ra,20005230 <SYSCALL>
20002d9c:	fec42783          	lw	a5,-20(s0)
20002da0:	00178793          	addi	a5,a5,1
20002da4:	fef42623          	sw	a5,-20(s0)
20002da8:	fec42703          	lw	a4,-20(s0)
20002dac:	06300793          	li	a5,99
20002db0:	fce7dce3          	bge	a5,a4,20002d88 <hp_p1+0x24>
20002db4:	00000693          	li	a3,0
20002db8:	00000613          	li	a2,0
20002dbc:	00000593          	li	a1,0
20002dc0:	ffe00513          	li	a0,-2
20002dc4:	46c020ef          	jal	ra,20005230 <SYSCALL>
20002dc8:	200067b7          	lui	a5,0x20006
20002dcc:	bf478513          	addi	a0,a5,-1036 # 20005bf4 <main+0x664>
20002dd0:	ae0fe0ef          	jal	ra,200010b0 <print>
20002dd4:	588020ef          	jal	ra,2000535c <PANIC>
20002dd8:	00000013          	nop
20002ddc:	01c12083          	lw	ra,28(sp)
20002de0:	01812403          	lw	s0,24(sp)
20002de4:	02010113          	addi	sp,sp,32
20002de8:	00008067          	ret

20002dec <hp_p2>:
20002dec:	fe010113          	addi	sp,sp,-32
20002df0:	00112e23          	sw	ra,28(sp)
20002df4:	00812c23          	sw	s0,24(sp)
20002df8:	02010413          	addi	s0,sp,32
20002dfc:	200067b7          	lui	a5,0x20006
20002e00:	c1078513          	addi	a0,a5,-1008 # 20005c10 <main+0x680>
20002e04:	aacfe0ef          	jal	ra,200010b0 <print>
20002e08:	fe042623          	sw	zero,-20(s0)
20002e0c:	0240006f          	j	20002e30 <hp_p2+0x44>
20002e10:	00000693          	li	a3,0
20002e14:	00000613          	li	a2,0
20002e18:	00000593          	li	a1,0
20002e1c:	ff900513          	li	a0,-7
20002e20:	410020ef          	jal	ra,20005230 <SYSCALL>
20002e24:	fec42783          	lw	a5,-20(s0)
20002e28:	00178793          	addi	a5,a5,1
20002e2c:	fef42623          	sw	a5,-20(s0)
20002e30:	fec42703          	lw	a4,-20(s0)
20002e34:	00900793          	li	a5,9
20002e38:	fce7dce3          	bge	a5,a4,20002e10 <hp_p2+0x24>
20002e3c:	00000693          	li	a3,0
20002e40:	00000613          	li	a2,0
20002e44:	00000593          	li	a1,0
20002e48:	ffe00513          	li	a0,-2
20002e4c:	3e4020ef          	jal	ra,20005230 <SYSCALL>
20002e50:	200067b7          	lui	a5,0x20006
20002e54:	c2078513          	addi	a0,a5,-992 # 20005c20 <main+0x690>
20002e58:	a58fe0ef          	jal	ra,200010b0 <print>
20002e5c:	500020ef          	jal	ra,2000535c <PANIC>
20002e60:	00000013          	nop
20002e64:	01c12083          	lw	ra,28(sp)
20002e68:	01812403          	lw	s0,24(sp)
20002e6c:	02010113          	addi	sp,sp,32
20002e70:	00008067          	ret

20002e74 <INIT_LIST_HEAD>:
20002e74:	fe010113          	addi	sp,sp,-32
20002e78:	00812e23          	sw	s0,28(sp)
20002e7c:	02010413          	addi	s0,sp,32
20002e80:	fea42623          	sw	a0,-20(s0)
20002e84:	fec42783          	lw	a5,-20(s0)
20002e88:	fec42703          	lw	a4,-20(s0)
20002e8c:	00e7a023          	sw	a4,0(a5)
20002e90:	fec42783          	lw	a5,-20(s0)
20002e94:	fec42703          	lw	a4,-20(s0)
20002e98:	00e7a223          	sw	a4,4(a5)
20002e9c:	00000013          	nop
20002ea0:	01c12403          	lw	s0,28(sp)
20002ea4:	02010113          	addi	sp,sp,32
20002ea8:	00008067          	ret

20002eac <__list_add>:
20002eac:	fe010113          	addi	sp,sp,-32
20002eb0:	00812e23          	sw	s0,28(sp)
20002eb4:	02010413          	addi	s0,sp,32
20002eb8:	fea42623          	sw	a0,-20(s0)
20002ebc:	feb42423          	sw	a1,-24(s0)
20002ec0:	fec42223          	sw	a2,-28(s0)
20002ec4:	fe442783          	lw	a5,-28(s0)
20002ec8:	fec42703          	lw	a4,-20(s0)
20002ecc:	00e7a223          	sw	a4,4(a5)
20002ed0:	fec42783          	lw	a5,-20(s0)
20002ed4:	fe442703          	lw	a4,-28(s0)
20002ed8:	00e7a023          	sw	a4,0(a5)
20002edc:	fec42783          	lw	a5,-20(s0)
20002ee0:	fe842703          	lw	a4,-24(s0)
20002ee4:	00e7a223          	sw	a4,4(a5)
20002ee8:	fe842783          	lw	a5,-24(s0)
20002eec:	fec42703          	lw	a4,-20(s0)
20002ef0:	00e7a023          	sw	a4,0(a5)
20002ef4:	00000013          	nop
20002ef8:	01c12403          	lw	s0,28(sp)
20002efc:	02010113          	addi	sp,sp,32
20002f00:	00008067          	ret

20002f04 <list_add_tail>:
20002f04:	fe010113          	addi	sp,sp,-32
20002f08:	00112e23          	sw	ra,28(sp)
20002f0c:	00812c23          	sw	s0,24(sp)
20002f10:	02010413          	addi	s0,sp,32
20002f14:	fea42623          	sw	a0,-20(s0)
20002f18:	feb42423          	sw	a1,-24(s0)
20002f1c:	fe842783          	lw	a5,-24(s0)
20002f20:	0047a783          	lw	a5,4(a5)
20002f24:	fe842603          	lw	a2,-24(s0)
20002f28:	00078593          	mv	a1,a5
20002f2c:	fec42503          	lw	a0,-20(s0)
20002f30:	f7dff0ef          	jal	ra,20002eac <__list_add>
20002f34:	00000013          	nop
20002f38:	01c12083          	lw	ra,28(sp)
20002f3c:	01812403          	lw	s0,24(sp)
20002f40:	02010113          	addi	sp,sp,32
20002f44:	00008067          	ret

20002f48 <__list_del>:
20002f48:	fe010113          	addi	sp,sp,-32
20002f4c:	00812e23          	sw	s0,28(sp)
20002f50:	02010413          	addi	s0,sp,32
20002f54:	fea42623          	sw	a0,-20(s0)
20002f58:	feb42423          	sw	a1,-24(s0)
20002f5c:	fe842783          	lw	a5,-24(s0)
20002f60:	fec42703          	lw	a4,-20(s0)
20002f64:	00e7a223          	sw	a4,4(a5)
20002f68:	fec42783          	lw	a5,-20(s0)
20002f6c:	fe842703          	lw	a4,-24(s0)
20002f70:	00e7a023          	sw	a4,0(a5)
20002f74:	00000013          	nop
20002f78:	01c12403          	lw	s0,28(sp)
20002f7c:	02010113          	addi	sp,sp,32
20002f80:	00008067          	ret

20002f84 <list_del>:
20002f84:	fe010113          	addi	sp,sp,-32
20002f88:	00112e23          	sw	ra,28(sp)
20002f8c:	00812c23          	sw	s0,24(sp)
20002f90:	02010413          	addi	s0,sp,32
20002f94:	fea42623          	sw	a0,-20(s0)
20002f98:	fec42783          	lw	a5,-20(s0)
20002f9c:	0047a703          	lw	a4,4(a5)
20002fa0:	fec42783          	lw	a5,-20(s0)
20002fa4:	0007a783          	lw	a5,0(a5)
20002fa8:	00078593          	mv	a1,a5
20002fac:	00070513          	mv	a0,a4
20002fb0:	f99ff0ef          	jal	ra,20002f48 <__list_del>
20002fb4:	00000013          	nop
20002fb8:	01c12083          	lw	ra,28(sp)
20002fbc:	01812403          	lw	s0,24(sp)
20002fc0:	02010113          	addi	sp,sp,32
20002fc4:	00008067          	ret

20002fc8 <list_empty>:
20002fc8:	fe010113          	addi	sp,sp,-32
20002fcc:	00812e23          	sw	s0,28(sp)
20002fd0:	02010413          	addi	s0,sp,32
20002fd4:	fea42623          	sw	a0,-20(s0)
20002fd8:	fec42783          	lw	a5,-20(s0)
20002fdc:	0007a783          	lw	a5,0(a5)
20002fe0:	fec42703          	lw	a4,-20(s0)
20002fe4:	40f707b3          	sub	a5,a4,a5
20002fe8:	0017b793          	seqz	a5,a5
20002fec:	0ff7f793          	zext.b	a5,a5
20002ff0:	00078513          	mv	a0,a5
20002ff4:	01c12403          	lw	s0,28(sp)
20002ff8:	02010113          	addi	sp,sp,32
20002ffc:	00008067          	ret

20003000 <initPcbs>:
20003000:	fe010113          	addi	sp,sp,-32
20003004:	00112e23          	sw	ra,28(sp)
20003008:	00812c23          	sw	s0,24(sp)
2000300c:	02010413          	addi	s0,sp,32
20003010:	fe042623          	sw	zero,-20(s0)
20003014:	0400006f          	j	20003054 <initPcbs+0x54>
20003018:	fec42703          	lw	a4,-20(s0)
2000301c:	0bc00793          	li	a5,188
20003020:	02f70733          	mul	a4,a4,a5
20003024:	200077b7          	lui	a5,0x20007
20003028:	c9c78793          	addi	a5,a5,-868 # 20006c9c <pcbFree_table>
2000302c:	00f707b3          	add	a5,a4,a5
20003030:	fef42423          	sw	a5,-24(s0)
20003034:	fe842703          	lw	a4,-24(s0)
20003038:	200067b7          	lui	a5,0x20006
2000303c:	01078593          	addi	a1,a5,16 # 20006010 <pcbFree_h>
20003040:	00070513          	mv	a0,a4
20003044:	ec1ff0ef          	jal	ra,20002f04 <list_add_tail>
20003048:	fec42783          	lw	a5,-20(s0)
2000304c:	00178793          	addi	a5,a5,1
20003050:	fef42623          	sw	a5,-20(s0)
20003054:	fec42703          	lw	a4,-20(s0)
20003058:	01300793          	li	a5,19
2000305c:	fae7dee3          	bge	a5,a4,20003018 <initPcbs+0x18>
20003060:	00000013          	nop
20003064:	00000013          	nop
20003068:	01c12083          	lw	ra,28(sp)
2000306c:	01812403          	lw	s0,24(sp)
20003070:	02010113          	addi	sp,sp,32
20003074:	00008067          	ret

20003078 <freePcb>:
20003078:	fe010113          	addi	sp,sp,-32
2000307c:	00112e23          	sw	ra,28(sp)
20003080:	00812c23          	sw	s0,24(sp)
20003084:	02010413          	addi	s0,sp,32
20003088:	fea42623          	sw	a0,-20(s0)
2000308c:	fec42703          	lw	a4,-20(s0)
20003090:	200067b7          	lui	a5,0x20006
20003094:	01078593          	addi	a1,a5,16 # 20006010 <pcbFree_h>
20003098:	00070513          	mv	a0,a4
2000309c:	e69ff0ef          	jal	ra,20002f04 <list_add_tail>
200030a0:	00000013          	nop
200030a4:	01c12083          	lw	ra,28(sp)
200030a8:	01812403          	lw	s0,24(sp)
200030ac:	02010113          	addi	sp,sp,32
200030b0:	00008067          	ret

200030b4 <allocPcb>:
200030b4:	fe010113          	addi	sp,sp,-32
200030b8:	00112e23          	sw	ra,28(sp)
200030bc:	00812c23          	sw	s0,24(sp)
200030c0:	02010413          	addi	s0,sp,32
200030c4:	200067b7          	lui	a5,0x20006
200030c8:	01078513          	addi	a0,a5,16 # 20006010 <pcbFree_h>
200030cc:	efdff0ef          	jal	ra,20002fc8 <list_empty>
200030d0:	00050793          	mv	a5,a0
200030d4:	00078663          	beqz	a5,200030e0 <allocPcb+0x2c>
200030d8:	00000793          	li	a5,0
200030dc:	0880006f          	j	20003164 <allocPcb+0xb0>
200030e0:	200067b7          	lui	a5,0x20006
200030e4:	01078793          	addi	a5,a5,16 # 20006010 <pcbFree_h>
200030e8:	0007a783          	lw	a5,0(a5)
200030ec:	fef42623          	sw	a5,-20(s0)
200030f0:	fec42783          	lw	a5,-20(s0)
200030f4:	fef42423          	sw	a5,-24(s0)
200030f8:	200067b7          	lui	a5,0x20006
200030fc:	01078793          	addi	a5,a5,16 # 20006010 <pcbFree_h>
20003100:	0007a783          	lw	a5,0(a5)
20003104:	00078513          	mv	a0,a5
20003108:	e7dff0ef          	jal	ra,20002f84 <list_del>
2000310c:	fe842783          	lw	a5,-24(s0)
20003110:	00078513          	mv	a0,a5
20003114:	d61ff0ef          	jal	ra,20002e74 <INIT_LIST_HEAD>
20003118:	fe842783          	lw	a5,-24(s0)
2000311c:	0007a423          	sw	zero,8(a5)
20003120:	fe842783          	lw	a5,-24(s0)
20003124:	00c78793          	addi	a5,a5,12
20003128:	00078513          	mv	a0,a5
2000312c:	d49ff0ef          	jal	ra,20002e74 <INIT_LIST_HEAD>
20003130:	fe842783          	lw	a5,-24(s0)
20003134:	01478793          	addi	a5,a5,20
20003138:	00078513          	mv	a0,a5
2000313c:	d39ff0ef          	jal	ra,20002e74 <INIT_LIST_HEAD>
20003140:	fe842783          	lw	a5,-24(s0)
20003144:	0a07a423          	sw	zero,168(a5)
20003148:	fe842783          	lw	a5,-24(s0)
2000314c:	0a07a623          	sw	zero,172(a5)
20003150:	fe842503          	lw	a0,-24(s0)
20003154:	3f8020ef          	jal	ra,2000554c <set_pid>
20003158:	fe842783          	lw	a5,-24(s0)
2000315c:	0a07a823          	sw	zero,176(a5)
20003160:	fe842783          	lw	a5,-24(s0)
20003164:	00078513          	mv	a0,a5
20003168:	01c12083          	lw	ra,28(sp)
2000316c:	01812403          	lw	s0,24(sp)
20003170:	02010113          	addi	sp,sp,32
20003174:	00008067          	ret

20003178 <mkEmptyProcQ>:
20003178:	fe010113          	addi	sp,sp,-32
2000317c:	00112e23          	sw	ra,28(sp)
20003180:	00812c23          	sw	s0,24(sp)
20003184:	02010413          	addi	s0,sp,32
20003188:	fea42623          	sw	a0,-20(s0)
2000318c:	fec42503          	lw	a0,-20(s0)
20003190:	ce5ff0ef          	jal	ra,20002e74 <INIT_LIST_HEAD>
20003194:	00000013          	nop
20003198:	01c12083          	lw	ra,28(sp)
2000319c:	01812403          	lw	s0,24(sp)
200031a0:	02010113          	addi	sp,sp,32
200031a4:	00008067          	ret

200031a8 <emptyProcQ>:
200031a8:	fe010113          	addi	sp,sp,-32
200031ac:	00112e23          	sw	ra,28(sp)
200031b0:	00812c23          	sw	s0,24(sp)
200031b4:	02010413          	addi	s0,sp,32
200031b8:	fea42623          	sw	a0,-20(s0)
200031bc:	fec42503          	lw	a0,-20(s0)
200031c0:	e09ff0ef          	jal	ra,20002fc8 <list_empty>
200031c4:	00050793          	mv	a5,a0
200031c8:	00078513          	mv	a0,a5
200031cc:	01c12083          	lw	ra,28(sp)
200031d0:	01812403          	lw	s0,24(sp)
200031d4:	02010113          	addi	sp,sp,32
200031d8:	00008067          	ret

200031dc <insertProcQ>:
200031dc:	fe010113          	addi	sp,sp,-32
200031e0:	00112e23          	sw	ra,28(sp)
200031e4:	00812c23          	sw	s0,24(sp)
200031e8:	02010413          	addi	s0,sp,32
200031ec:	fea42623          	sw	a0,-20(s0)
200031f0:	feb42423          	sw	a1,-24(s0)
200031f4:	fe842783          	lw	a5,-24(s0)
200031f8:	fec42583          	lw	a1,-20(s0)
200031fc:	00078513          	mv	a0,a5
20003200:	d05ff0ef          	jal	ra,20002f04 <list_add_tail>
20003204:	00000013          	nop
20003208:	01c12083          	lw	ra,28(sp)
2000320c:	01812403          	lw	s0,24(sp)
20003210:	02010113          	addi	sp,sp,32
20003214:	00008067          	ret

20003218 <headProcQ>:
20003218:	fd010113          	addi	sp,sp,-48
2000321c:	02112623          	sw	ra,44(sp)
20003220:	02812423          	sw	s0,40(sp)
20003224:	03010413          	addi	s0,sp,48
20003228:	fca42e23          	sw	a0,-36(s0)
2000322c:	fdc42503          	lw	a0,-36(s0)
20003230:	d99ff0ef          	jal	ra,20002fc8 <list_empty>
20003234:	00050793          	mv	a5,a0
20003238:	00079c63          	bnez	a5,20003250 <headProcQ+0x38>
2000323c:	fdc42783          	lw	a5,-36(s0)
20003240:	0007a783          	lw	a5,0(a5)
20003244:	fef42623          	sw	a5,-20(s0)
20003248:	fec42783          	lw	a5,-20(s0)
2000324c:	0080006f          	j	20003254 <headProcQ+0x3c>
20003250:	00000793          	li	a5,0
20003254:	00078513          	mv	a0,a5
20003258:	02c12083          	lw	ra,44(sp)
2000325c:	02812403          	lw	s0,40(sp)
20003260:	03010113          	addi	sp,sp,48
20003264:	00008067          	ret

20003268 <removeProcQ>:
20003268:	fd010113          	addi	sp,sp,-48
2000326c:	02112623          	sw	ra,44(sp)
20003270:	02812423          	sw	s0,40(sp)
20003274:	03010413          	addi	s0,sp,48
20003278:	fca42e23          	sw	a0,-36(s0)
2000327c:	fdc42503          	lw	a0,-36(s0)
20003280:	d49ff0ef          	jal	ra,20002fc8 <list_empty>
20003284:	00050793          	mv	a5,a0
20003288:	00078663          	beqz	a5,20003294 <removeProcQ+0x2c>
2000328c:	00000793          	li	a5,0
20003290:	0300006f          	j	200032c0 <removeProcQ+0x58>
20003294:	fdc42783          	lw	a5,-36(s0)
20003298:	0007a783          	lw	a5,0(a5)
2000329c:	fef42623          	sw	a5,-20(s0)
200032a0:	fdc42783          	lw	a5,-36(s0)
200032a4:	0007a783          	lw	a5,0(a5)
200032a8:	00078513          	mv	a0,a5
200032ac:	cd9ff0ef          	jal	ra,20002f84 <list_del>
200032b0:	fec42783          	lw	a5,-20(s0)
200032b4:	fef42423          	sw	a5,-24(s0)
200032b8:	fe842783          	lw	a5,-24(s0)
200032bc:	00000013          	nop
200032c0:	00078513          	mv	a0,a5
200032c4:	02c12083          	lw	ra,44(sp)
200032c8:	02812403          	lw	s0,40(sp)
200032cc:	03010113          	addi	sp,sp,48
200032d0:	00008067          	ret

200032d4 <outProcQ>:
200032d4:	fd010113          	addi	sp,sp,-48
200032d8:	02112623          	sw	ra,44(sp)
200032dc:	02812423          	sw	s0,40(sp)
200032e0:	03010413          	addi	s0,sp,48
200032e4:	fca42e23          	sw	a0,-36(s0)
200032e8:	fcb42c23          	sw	a1,-40(s0)
200032ec:	fdc42783          	lw	a5,-36(s0)
200032f0:	0007a783          	lw	a5,0(a5)
200032f4:	fef42623          	sw	a5,-20(s0)
200032f8:	0380006f          	j	20003330 <outProcQ+0x5c>
200032fc:	fec42783          	lw	a5,-20(s0)
20003300:	fef42423          	sw	a5,-24(s0)
20003304:	fe842703          	lw	a4,-24(s0)
20003308:	fd842783          	lw	a5,-40(s0)
2000330c:	00f71c63          	bne	a4,a5,20003324 <outProcQ+0x50>
20003310:	fd842783          	lw	a5,-40(s0)
20003314:	00078513          	mv	a0,a5
20003318:	c6dff0ef          	jal	ra,20002f84 <list_del>
2000331c:	fd842783          	lw	a5,-40(s0)
20003320:	0200006f          	j	20003340 <outProcQ+0x6c>
20003324:	fec42783          	lw	a5,-20(s0)
20003328:	0007a783          	lw	a5,0(a5)
2000332c:	fef42623          	sw	a5,-20(s0)
20003330:	fec42703          	lw	a4,-20(s0)
20003334:	fdc42783          	lw	a5,-36(s0)
20003338:	fcf712e3          	bne	a4,a5,200032fc <outProcQ+0x28>
2000333c:	00000793          	li	a5,0
20003340:	00078513          	mv	a0,a5
20003344:	02c12083          	lw	ra,44(sp)
20003348:	02812403          	lw	s0,40(sp)
2000334c:	03010113          	addi	sp,sp,48
20003350:	00008067          	ret

20003354 <emptyChild>:
20003354:	fe010113          	addi	sp,sp,-32
20003358:	00112e23          	sw	ra,28(sp)
2000335c:	00812c23          	sw	s0,24(sp)
20003360:	02010413          	addi	s0,sp,32
20003364:	fea42623          	sw	a0,-20(s0)
20003368:	fec42783          	lw	a5,-20(s0)
2000336c:	00c78793          	addi	a5,a5,12
20003370:	00078513          	mv	a0,a5
20003374:	c55ff0ef          	jal	ra,20002fc8 <list_empty>
20003378:	00050793          	mv	a5,a0
2000337c:	00078513          	mv	a0,a5
20003380:	01c12083          	lw	ra,28(sp)
20003384:	01812403          	lw	s0,24(sp)
20003388:	02010113          	addi	sp,sp,32
2000338c:	00008067          	ret

20003390 <insertChild>:
20003390:	fe010113          	addi	sp,sp,-32
20003394:	00112e23          	sw	ra,28(sp)
20003398:	00812c23          	sw	s0,24(sp)
2000339c:	02010413          	addi	s0,sp,32
200033a0:	fea42623          	sw	a0,-20(s0)
200033a4:	feb42423          	sw	a1,-24(s0)
200033a8:	fe842783          	lw	a5,-24(s0)
200033ac:	01478713          	addi	a4,a5,20
200033b0:	fec42783          	lw	a5,-20(s0)
200033b4:	00c78793          	addi	a5,a5,12
200033b8:	00078593          	mv	a1,a5
200033bc:	00070513          	mv	a0,a4
200033c0:	b45ff0ef          	jal	ra,20002f04 <list_add_tail>
200033c4:	fe842783          	lw	a5,-24(s0)
200033c8:	fec42703          	lw	a4,-20(s0)
200033cc:	00e7a423          	sw	a4,8(a5)
200033d0:	00000013          	nop
200033d4:	01c12083          	lw	ra,28(sp)
200033d8:	01812403          	lw	s0,24(sp)
200033dc:	02010113          	addi	sp,sp,32
200033e0:	00008067          	ret

200033e4 <removeChild>:
200033e4:	fd010113          	addi	sp,sp,-48
200033e8:	02112623          	sw	ra,44(sp)
200033ec:	02812423          	sw	s0,40(sp)
200033f0:	03010413          	addi	s0,sp,48
200033f4:	fca42e23          	sw	a0,-36(s0)
200033f8:	fdc42783          	lw	a5,-36(s0)
200033fc:	00c78793          	addi	a5,a5,12
20003400:	00078513          	mv	a0,a5
20003404:	bc5ff0ef          	jal	ra,20002fc8 <list_empty>
20003408:	00050793          	mv	a5,a0
2000340c:	00078663          	beqz	a5,20003418 <removeChild+0x34>
20003410:	00000793          	li	a5,0
20003414:	0480006f          	j	2000345c <removeChild+0x78>
20003418:	fdc42783          	lw	a5,-36(s0)
2000341c:	00c7a783          	lw	a5,12(a5)
20003420:	fef42623          	sw	a5,-20(s0)
20003424:	fec42783          	lw	a5,-20(s0)
20003428:	fec78793          	addi	a5,a5,-20
2000342c:	fef42423          	sw	a5,-24(s0)
20003430:	fdc42783          	lw	a5,-36(s0)
20003434:	00c7a783          	lw	a5,12(a5)
20003438:	00078513          	mv	a0,a5
2000343c:	b49ff0ef          	jal	ra,20002f84 <list_del>
20003440:	fe842783          	lw	a5,-24(s0)
20003444:	01478793          	addi	a5,a5,20
20003448:	00078513          	mv	a0,a5
2000344c:	a29ff0ef          	jal	ra,20002e74 <INIT_LIST_HEAD>
20003450:	fe842783          	lw	a5,-24(s0)
20003454:	0007a423          	sw	zero,8(a5)
20003458:	fe842783          	lw	a5,-24(s0)
2000345c:	00078513          	mv	a0,a5
20003460:	02c12083          	lw	ra,44(sp)
20003464:	02812403          	lw	s0,40(sp)
20003468:	03010113          	addi	sp,sp,48
2000346c:	00008067          	ret

20003470 <outChild>:
20003470:	fd010113          	addi	sp,sp,-48
20003474:	02112623          	sw	ra,44(sp)
20003478:	02812423          	sw	s0,40(sp)
2000347c:	03010413          	addi	s0,sp,48
20003480:	fca42e23          	sw	a0,-36(s0)
20003484:	fdc42783          	lw	a5,-36(s0)
20003488:	0087a783          	lw	a5,8(a5)
2000348c:	fef42623          	sw	a5,-20(s0)
20003490:	fec42783          	lw	a5,-20(s0)
20003494:	02078a63          	beqz	a5,200034c8 <outChild+0x58>
20003498:	fdc42783          	lw	a5,-36(s0)
2000349c:	01478793          	addi	a5,a5,20
200034a0:	00078513          	mv	a0,a5
200034a4:	ae1ff0ef          	jal	ra,20002f84 <list_del>
200034a8:	fdc42783          	lw	a5,-36(s0)
200034ac:	01478793          	addi	a5,a5,20
200034b0:	00078513          	mv	a0,a5
200034b4:	9c1ff0ef          	jal	ra,20002e74 <INIT_LIST_HEAD>
200034b8:	fdc42783          	lw	a5,-36(s0)
200034bc:	0007a423          	sw	zero,8(a5)
200034c0:	fdc42783          	lw	a5,-36(s0)
200034c4:	0080006f          	j	200034cc <outChild+0x5c>
200034c8:	00000793          	li	a5,0
200034cc:	00078513          	mv	a0,a5
200034d0:	02c12083          	lw	ra,44(sp)
200034d4:	02812403          	lw	s0,40(sp)
200034d8:	03010113          	addi	sp,sp,48
200034dc:	00008067          	ret

200034e0 <isPcbFree>:
200034e0:	fd010113          	addi	sp,sp,-48
200034e4:	02812623          	sw	s0,44(sp)
200034e8:	03010413          	addi	s0,sp,48
200034ec:	fca42e23          	sw	a0,-36(s0)
200034f0:	200067b7          	lui	a5,0x20006
200034f4:	01078793          	addi	a5,a5,16 # 20006010 <pcbFree_h>
200034f8:	0007a783          	lw	a5,0(a5)
200034fc:	fef42623          	sw	a5,-20(s0)
20003500:	0300006f          	j	20003530 <isPcbFree+0x50>
20003504:	fec42783          	lw	a5,-20(s0)
20003508:	fef42423          	sw	a5,-24(s0)
2000350c:	fe842783          	lw	a5,-24(s0)
20003510:	0b87a783          	lw	a5,184(a5)
20003514:	fdc42703          	lw	a4,-36(s0)
20003518:	00f71663          	bne	a4,a5,20003524 <isPcbFree+0x44>
2000351c:	00100793          	li	a5,1
20003520:	0240006f          	j	20003544 <isPcbFree+0x64>
20003524:	fec42783          	lw	a5,-20(s0)
20003528:	0007a783          	lw	a5,0(a5)
2000352c:	fef42623          	sw	a5,-20(s0)
20003530:	fec42703          	lw	a4,-20(s0)
20003534:	200067b7          	lui	a5,0x20006
20003538:	01078793          	addi	a5,a5,16 # 20006010 <pcbFree_h>
2000353c:	fcf714e3          	bne	a4,a5,20003504 <isPcbFree+0x24>
20003540:	00000793          	li	a5,0
20003544:	00078513          	mv	a0,a5
20003548:	02c12403          	lw	s0,44(sp)
2000354c:	03010113          	addi	sp,sp,48
20003550:	00008067          	ret

20003554 <INIT_LIST_HEAD>:
20003554:	fe010113          	addi	sp,sp,-32
20003558:	00812e23          	sw	s0,28(sp)
2000355c:	02010413          	addi	s0,sp,32
20003560:	fea42623          	sw	a0,-20(s0)
20003564:	fec42783          	lw	a5,-20(s0)
20003568:	fec42703          	lw	a4,-20(s0)
2000356c:	00e7a023          	sw	a4,0(a5)
20003570:	fec42783          	lw	a5,-20(s0)
20003574:	fec42703          	lw	a4,-20(s0)
20003578:	00e7a223          	sw	a4,4(a5)
2000357c:	00000013          	nop
20003580:	01c12403          	lw	s0,28(sp)
20003584:	02010113          	addi	sp,sp,32
20003588:	00008067          	ret

2000358c <__list_add>:
2000358c:	fe010113          	addi	sp,sp,-32
20003590:	00812e23          	sw	s0,28(sp)
20003594:	02010413          	addi	s0,sp,32
20003598:	fea42623          	sw	a0,-20(s0)
2000359c:	feb42423          	sw	a1,-24(s0)
200035a0:	fec42223          	sw	a2,-28(s0)
200035a4:	fe442783          	lw	a5,-28(s0)
200035a8:	fec42703          	lw	a4,-20(s0)
200035ac:	00e7a223          	sw	a4,4(a5)
200035b0:	fec42783          	lw	a5,-20(s0)
200035b4:	fe442703          	lw	a4,-28(s0)
200035b8:	00e7a023          	sw	a4,0(a5)
200035bc:	fec42783          	lw	a5,-20(s0)
200035c0:	fe842703          	lw	a4,-24(s0)
200035c4:	00e7a223          	sw	a4,4(a5)
200035c8:	fe842783          	lw	a5,-24(s0)
200035cc:	fec42703          	lw	a4,-20(s0)
200035d0:	00e7a023          	sw	a4,0(a5)
200035d4:	00000013          	nop
200035d8:	01c12403          	lw	s0,28(sp)
200035dc:	02010113          	addi	sp,sp,32
200035e0:	00008067          	ret

200035e4 <list_add_tail>:
200035e4:	fe010113          	addi	sp,sp,-32
200035e8:	00112e23          	sw	ra,28(sp)
200035ec:	00812c23          	sw	s0,24(sp)
200035f0:	02010413          	addi	s0,sp,32
200035f4:	fea42623          	sw	a0,-20(s0)
200035f8:	feb42423          	sw	a1,-24(s0)
200035fc:	fe842783          	lw	a5,-24(s0)
20003600:	0047a783          	lw	a5,4(a5)
20003604:	fe842603          	lw	a2,-24(s0)
20003608:	00078593          	mv	a1,a5
2000360c:	fec42503          	lw	a0,-20(s0)
20003610:	f7dff0ef          	jal	ra,2000358c <__list_add>
20003614:	00000013          	nop
20003618:	01c12083          	lw	ra,28(sp)
2000361c:	01812403          	lw	s0,24(sp)
20003620:	02010113          	addi	sp,sp,32
20003624:	00008067          	ret

20003628 <__list_del>:
20003628:	fe010113          	addi	sp,sp,-32
2000362c:	00812e23          	sw	s0,28(sp)
20003630:	02010413          	addi	s0,sp,32
20003634:	fea42623          	sw	a0,-20(s0)
20003638:	feb42423          	sw	a1,-24(s0)
2000363c:	fe842783          	lw	a5,-24(s0)
20003640:	fec42703          	lw	a4,-20(s0)
20003644:	00e7a223          	sw	a4,4(a5)
20003648:	fec42783          	lw	a5,-20(s0)
2000364c:	fe842703          	lw	a4,-24(s0)
20003650:	00e7a023          	sw	a4,0(a5)
20003654:	00000013          	nop
20003658:	01c12403          	lw	s0,28(sp)
2000365c:	02010113          	addi	sp,sp,32
20003660:	00008067          	ret

20003664 <list_del>:
20003664:	fe010113          	addi	sp,sp,-32
20003668:	00112e23          	sw	ra,28(sp)
2000366c:	00812c23          	sw	s0,24(sp)
20003670:	02010413          	addi	s0,sp,32
20003674:	fea42623          	sw	a0,-20(s0)
20003678:	fec42783          	lw	a5,-20(s0)
2000367c:	0047a703          	lw	a4,4(a5)
20003680:	fec42783          	lw	a5,-20(s0)
20003684:	0007a783          	lw	a5,0(a5)
20003688:	00078593          	mv	a1,a5
2000368c:	00070513          	mv	a0,a4
20003690:	f99ff0ef          	jal	ra,20003628 <__list_del>
20003694:	00000013          	nop
20003698:	01c12083          	lw	ra,28(sp)
2000369c:	01812403          	lw	s0,24(sp)
200036a0:	02010113          	addi	sp,sp,32
200036a4:	00008067          	ret

200036a8 <list_empty>:
200036a8:	fe010113          	addi	sp,sp,-32
200036ac:	00812e23          	sw	s0,28(sp)
200036b0:	02010413          	addi	s0,sp,32
200036b4:	fea42623          	sw	a0,-20(s0)
200036b8:	fec42783          	lw	a5,-20(s0)
200036bc:	0007a783          	lw	a5,0(a5)
200036c0:	fec42703          	lw	a4,-20(s0)
200036c4:	40f707b3          	sub	a5,a4,a5
200036c8:	0017b793          	seqz	a5,a5
200036cc:	0ff7f793          	zext.b	a5,a5
200036d0:	00078513          	mv	a0,a5
200036d4:	01c12403          	lw	s0,28(sp)
200036d8:	02010113          	addi	sp,sp,32
200036dc:	00008067          	ret

200036e0 <findASL>:
200036e0:	fd010113          	addi	sp,sp,-48
200036e4:	02812623          	sw	s0,44(sp)
200036e8:	03010413          	addi	s0,sp,48
200036ec:	fca42e23          	sw	a0,-36(s0)
200036f0:	200067b7          	lui	a5,0x20006
200036f4:	02078793          	addi	a5,a5,32 # 20006020 <ASL_h>
200036f8:	0007a783          	lw	a5,0(a5)
200036fc:	fef42623          	sw	a5,-20(s0)
20003700:	03c0006f          	j	2000373c <findASL+0x5c>
20003704:	fec42783          	lw	a5,-20(s0)
20003708:	fef42423          	sw	a5,-24(s0)
2000370c:	fe842783          	lw	a5,-24(s0)
20003710:	ff478793          	addi	a5,a5,-12
20003714:	fef42223          	sw	a5,-28(s0)
20003718:	fe442783          	lw	a5,-28(s0)
2000371c:	0007a783          	lw	a5,0(a5)
20003720:	fdc42703          	lw	a4,-36(s0)
20003724:	00f71663          	bne	a4,a5,20003730 <findASL+0x50>
20003728:	fe442783          	lw	a5,-28(s0)
2000372c:	0240006f          	j	20003750 <findASL+0x70>
20003730:	fec42783          	lw	a5,-20(s0)
20003734:	0007a783          	lw	a5,0(a5)
20003738:	fef42623          	sw	a5,-20(s0)
2000373c:	fec42703          	lw	a4,-20(s0)
20003740:	200067b7          	lui	a5,0x20006
20003744:	02078793          	addi	a5,a5,32 # 20006020 <ASL_h>
20003748:	faf71ee3          	bne	a4,a5,20003704 <findASL+0x24>
2000374c:	00000793          	li	a5,0
20003750:	00078513          	mv	a0,a5
20003754:	02c12403          	lw	s0,44(sp)
20003758:	03010113          	addi	sp,sp,48
2000375c:	00008067          	ret

20003760 <isPcbBlocked>:
20003760:	fc010113          	addi	sp,sp,-64
20003764:	02812e23          	sw	s0,60(sp)
20003768:	04010413          	addi	s0,sp,64
2000376c:	fca42623          	sw	a0,-52(s0)
20003770:	200067b7          	lui	a5,0x20006
20003774:	02078793          	addi	a5,a5,32 # 20006020 <ASL_h>
20003778:	0007a783          	lw	a5,0(a5)
2000377c:	fef42623          	sw	a5,-20(s0)
20003780:	0780006f          	j	200037f8 <isPcbBlocked+0x98>
20003784:	fec42783          	lw	a5,-20(s0)
20003788:	fef42223          	sw	a5,-28(s0)
2000378c:	fe442783          	lw	a5,-28(s0)
20003790:	ff478793          	addi	a5,a5,-12
20003794:	fef42023          	sw	a5,-32(s0)
20003798:	fe042783          	lw	a5,-32(s0)
2000379c:	0047a783          	lw	a5,4(a5)
200037a0:	fef42423          	sw	a5,-24(s0)
200037a4:	0380006f          	j	200037dc <isPcbBlocked+0x7c>
200037a8:	fe842783          	lw	a5,-24(s0)
200037ac:	fcf42e23          	sw	a5,-36(s0)
200037b0:	fdc42783          	lw	a5,-36(s0)
200037b4:	fcf42c23          	sw	a5,-40(s0)
200037b8:	fd842783          	lw	a5,-40(s0)
200037bc:	0b87a783          	lw	a5,184(a5)
200037c0:	fcc42703          	lw	a4,-52(s0)
200037c4:	00f71663          	bne	a4,a5,200037d0 <isPcbBlocked+0x70>
200037c8:	fd842783          	lw	a5,-40(s0)
200037cc:	0400006f          	j	2000380c <isPcbBlocked+0xac>
200037d0:	fe842783          	lw	a5,-24(s0)
200037d4:	0007a783          	lw	a5,0(a5)
200037d8:	fef42423          	sw	a5,-24(s0)
200037dc:	fe042783          	lw	a5,-32(s0)
200037e0:	00478793          	addi	a5,a5,4
200037e4:	fe842703          	lw	a4,-24(s0)
200037e8:	fcf710e3          	bne	a4,a5,200037a8 <isPcbBlocked+0x48>
200037ec:	fec42783          	lw	a5,-20(s0)
200037f0:	0007a783          	lw	a5,0(a5)
200037f4:	fef42623          	sw	a5,-20(s0)
200037f8:	fec42703          	lw	a4,-20(s0)
200037fc:	200067b7          	lui	a5,0x20006
20003800:	02078793          	addi	a5,a5,32 # 20006020 <ASL_h>
20003804:	f8f710e3          	bne	a4,a5,20003784 <isPcbBlocked+0x24>
20003808:	00000793          	li	a5,0
2000380c:	00078513          	mv	a0,a5
20003810:	03c12403          	lw	s0,60(sp)
20003814:	04010113          	addi	sp,sp,64
20003818:	00008067          	ret

2000381c <isSemdFree>:
2000381c:	fe010113          	addi	sp,sp,-32
20003820:	00112e23          	sw	ra,28(sp)
20003824:	00812c23          	sw	s0,24(sp)
20003828:	02010413          	addi	s0,sp,32
2000382c:	fea42623          	sw	a0,-20(s0)
20003830:	fec42783          	lw	a5,-20(s0)
20003834:	00478793          	addi	a5,a5,4
20003838:	00078513          	mv	a0,a5
2000383c:	e6dff0ef          	jal	ra,200036a8 <list_empty>
20003840:	00050793          	mv	a5,a0
20003844:	02078a63          	beqz	a5,20003878 <isSemdFree+0x5c>
20003848:	fec42783          	lw	a5,-20(s0)
2000384c:	00c78793          	addi	a5,a5,12
20003850:	00078513          	mv	a0,a5
20003854:	e11ff0ef          	jal	ra,20003664 <list_del>
20003858:	fec42783          	lw	a5,-20(s0)
2000385c:	00c78713          	addi	a4,a5,12
20003860:	200067b7          	lui	a5,0x20006
20003864:	01878593          	addi	a1,a5,24 # 20006018 <semdFree_h>
20003868:	00070513          	mv	a0,a4
2000386c:	d79ff0ef          	jal	ra,200035e4 <list_add_tail>
20003870:	00100793          	li	a5,1
20003874:	0080006f          	j	2000387c <isSemdFree+0x60>
20003878:	00000793          	li	a5,0
2000387c:	00078513          	mv	a0,a5
20003880:	01c12083          	lw	ra,28(sp)
20003884:	01812403          	lw	s0,24(sp)
20003888:	02010113          	addi	sp,sp,32
2000388c:	00008067          	ret

20003890 <insertBlocked>:
20003890:	fd010113          	addi	sp,sp,-48
20003894:	02112623          	sw	ra,44(sp)
20003898:	02812423          	sw	s0,40(sp)
2000389c:	03010413          	addi	s0,sp,48
200038a0:	fca42e23          	sw	a0,-36(s0)
200038a4:	fcb42c23          	sw	a1,-40(s0)
200038a8:	fdc42503          	lw	a0,-36(s0)
200038ac:	e35ff0ef          	jal	ra,200036e0 <findASL>
200038b0:	fea42623          	sw	a0,-20(s0)
200038b4:	fec42783          	lw	a5,-20(s0)
200038b8:	02078a63          	beqz	a5,200038ec <insertBlocked+0x5c>
200038bc:	fd842783          	lw	a5,-40(s0)
200038c0:	fdc42703          	lw	a4,-36(s0)
200038c4:	0ae7a623          	sw	a4,172(a5)
200038c8:	fec42783          	lw	a5,-20(s0)
200038cc:	0007a783          	lw	a5,0(a5)
200038d0:	0007a023          	sw	zero,0(a5)
200038d4:	fec42783          	lw	a5,-20(s0)
200038d8:	00478793          	addi	a5,a5,4
200038dc:	fd842583          	lw	a1,-40(s0)
200038e0:	00078513          	mv	a0,a5
200038e4:	8f9ff0ef          	jal	ra,200031dc <insertProcQ>
200038e8:	0a00006f          	j	20003988 <insertBlocked+0xf8>
200038ec:	200067b7          	lui	a5,0x20006
200038f0:	01878513          	addi	a0,a5,24 # 20006018 <semdFree_h>
200038f4:	db5ff0ef          	jal	ra,200036a8 <list_empty>
200038f8:	00050793          	mv	a5,a0
200038fc:	00078663          	beqz	a5,20003908 <insertBlocked+0x78>
20003900:	00100793          	li	a5,1
20003904:	0880006f          	j	2000398c <insertBlocked+0xfc>
20003908:	200067b7          	lui	a5,0x20006
2000390c:	01878793          	addi	a5,a5,24 # 20006018 <semdFree_h>
20003910:	0007a783          	lw	a5,0(a5)
20003914:	fef42423          	sw	a5,-24(s0)
20003918:	fe842783          	lw	a5,-24(s0)
2000391c:	ff478793          	addi	a5,a5,-12
20003920:	fef42623          	sw	a5,-20(s0)
20003924:	fec42783          	lw	a5,-20(s0)
20003928:	00c78793          	addi	a5,a5,12
2000392c:	00078513          	mv	a0,a5
20003930:	d35ff0ef          	jal	ra,20003664 <list_del>
20003934:	fd842783          	lw	a5,-40(s0)
20003938:	fdc42703          	lw	a4,-36(s0)
2000393c:	0ae7a623          	sw	a4,172(a5)
20003940:	fec42783          	lw	a5,-20(s0)
20003944:	fdc42703          	lw	a4,-36(s0)
20003948:	00e7a023          	sw	a4,0(a5)
2000394c:	fec42783          	lw	a5,-20(s0)
20003950:	00478793          	addi	a5,a5,4
20003954:	00078513          	mv	a0,a5
20003958:	bfdff0ef          	jal	ra,20003554 <INIT_LIST_HEAD>
2000395c:	fec42783          	lw	a5,-20(s0)
20003960:	00478793          	addi	a5,a5,4
20003964:	fd842583          	lw	a1,-40(s0)
20003968:	00078513          	mv	a0,a5
2000396c:	871ff0ef          	jal	ra,200031dc <insertProcQ>
20003970:	fec42783          	lw	a5,-20(s0)
20003974:	00c78713          	addi	a4,a5,12
20003978:	200067b7          	lui	a5,0x20006
2000397c:	02078593          	addi	a1,a5,32 # 20006020 <ASL_h>
20003980:	00070513          	mv	a0,a4
20003984:	c61ff0ef          	jal	ra,200035e4 <list_add_tail>
20003988:	00000793          	li	a5,0
2000398c:	00078513          	mv	a0,a5
20003990:	02c12083          	lw	ra,44(sp)
20003994:	02812403          	lw	s0,40(sp)
20003998:	03010113          	addi	sp,sp,48
2000399c:	00008067          	ret

200039a0 <removeBlocked>:
200039a0:	fd010113          	addi	sp,sp,-48
200039a4:	02112623          	sw	ra,44(sp)
200039a8:	02812423          	sw	s0,40(sp)
200039ac:	03010413          	addi	s0,sp,48
200039b0:	fca42e23          	sw	a0,-36(s0)
200039b4:	fdc42503          	lw	a0,-36(s0)
200039b8:	d29ff0ef          	jal	ra,200036e0 <findASL>
200039bc:	fea42623          	sw	a0,-20(s0)
200039c0:	fec42783          	lw	a5,-20(s0)
200039c4:	04078863          	beqz	a5,20003a14 <removeBlocked+0x74>
200039c8:	fec42503          	lw	a0,-20(s0)
200039cc:	e51ff0ef          	jal	ra,2000381c <isSemdFree>
200039d0:	00050793          	mv	a5,a0
200039d4:	04079063          	bnez	a5,20003a14 <removeBlocked+0x74>
200039d8:	fec42783          	lw	a5,-20(s0)
200039dc:	0047a783          	lw	a5,4(a5)
200039e0:	fef42423          	sw	a5,-24(s0)
200039e4:	fe842783          	lw	a5,-24(s0)
200039e8:	fef42223          	sw	a5,-28(s0)
200039ec:	fec42783          	lw	a5,-20(s0)
200039f0:	0047a783          	lw	a5,4(a5)
200039f4:	00078513          	mv	a0,a5
200039f8:	c6dff0ef          	jal	ra,20003664 <list_del>
200039fc:	fe442783          	lw	a5,-28(s0)
20003a00:	0a07a623          	sw	zero,172(a5)
20003a04:	fec42503          	lw	a0,-20(s0)
20003a08:	e15ff0ef          	jal	ra,2000381c <isSemdFree>
20003a0c:	fe442783          	lw	a5,-28(s0)
20003a10:	0080006f          	j	20003a18 <removeBlocked+0x78>
20003a14:	00000793          	li	a5,0
20003a18:	00078513          	mv	a0,a5
20003a1c:	02c12083          	lw	ra,44(sp)
20003a20:	02812403          	lw	s0,40(sp)
20003a24:	03010113          	addi	sp,sp,48
20003a28:	00008067          	ret

20003a2c <outBlocked>:
20003a2c:	fd010113          	addi	sp,sp,-48
20003a30:	02112623          	sw	ra,44(sp)
20003a34:	02812423          	sw	s0,40(sp)
20003a38:	03010413          	addi	s0,sp,48
20003a3c:	fca42e23          	sw	a0,-36(s0)
20003a40:	fdc42783          	lw	a5,-36(s0)
20003a44:	0ac7a783          	lw	a5,172(a5)
20003a48:	08078663          	beqz	a5,20003ad4 <outBlocked+0xa8>
20003a4c:	fdc42783          	lw	a5,-36(s0)
20003a50:	0ac7a783          	lw	a5,172(a5)
20003a54:	00078513          	mv	a0,a5
20003a58:	c89ff0ef          	jal	ra,200036e0 <findASL>
20003a5c:	fea42423          	sw	a0,-24(s0)
20003a60:	fe842783          	lw	a5,-24(s0)
20003a64:	06078863          	beqz	a5,20003ad4 <outBlocked+0xa8>
20003a68:	fe842783          	lw	a5,-24(s0)
20003a6c:	0047a783          	lw	a5,4(a5)
20003a70:	fef42623          	sw	a5,-20(s0)
20003a74:	0500006f          	j	20003ac4 <outBlocked+0x98>
20003a78:	fec42783          	lw	a5,-20(s0)
20003a7c:	fef42223          	sw	a5,-28(s0)
20003a80:	fe442783          	lw	a5,-28(s0)
20003a84:	fef42023          	sw	a5,-32(s0)
20003a88:	fdc42703          	lw	a4,-36(s0)
20003a8c:	fe042783          	lw	a5,-32(s0)
20003a90:	02f71463          	bne	a4,a5,20003ab8 <outBlocked+0x8c>
20003a94:	fdc42783          	lw	a5,-36(s0)
20003a98:	0a07a623          	sw	zero,172(a5)
20003a9c:	fdc42783          	lw	a5,-36(s0)
20003aa0:	00078513          	mv	a0,a5
20003aa4:	bc1ff0ef          	jal	ra,20003664 <list_del>
20003aa8:	fe842503          	lw	a0,-24(s0)
20003aac:	d71ff0ef          	jal	ra,2000381c <isSemdFree>
20003ab0:	fdc42783          	lw	a5,-36(s0)
20003ab4:	0240006f          	j	20003ad8 <outBlocked+0xac>
20003ab8:	fec42783          	lw	a5,-20(s0)
20003abc:	0007a783          	lw	a5,0(a5)
20003ac0:	fef42623          	sw	a5,-20(s0)
20003ac4:	fe842783          	lw	a5,-24(s0)
20003ac8:	00478793          	addi	a5,a5,4
20003acc:	fec42703          	lw	a4,-20(s0)
20003ad0:	faf714e3          	bne	a4,a5,20003a78 <outBlocked+0x4c>
20003ad4:	00000793          	li	a5,0
20003ad8:	00078513          	mv	a0,a5
20003adc:	02c12083          	lw	ra,44(sp)
20003ae0:	02812403          	lw	s0,40(sp)
20003ae4:	03010113          	addi	sp,sp,48
20003ae8:	00008067          	ret

20003aec <headBlocked>:
20003aec:	fd010113          	addi	sp,sp,-48
20003af0:	02112623          	sw	ra,44(sp)
20003af4:	02812423          	sw	s0,40(sp)
20003af8:	03010413          	addi	s0,sp,48
20003afc:	fca42e23          	sw	a0,-36(s0)
20003b00:	fdc42503          	lw	a0,-36(s0)
20003b04:	bddff0ef          	jal	ra,200036e0 <findASL>
20003b08:	fea42623          	sw	a0,-20(s0)
20003b0c:	fec42783          	lw	a5,-20(s0)
20003b10:	02078463          	beqz	a5,20003b38 <headBlocked+0x4c>
20003b14:	fec42503          	lw	a0,-20(s0)
20003b18:	d05ff0ef          	jal	ra,2000381c <isSemdFree>
20003b1c:	00050793          	mv	a5,a0
20003b20:	00079c63          	bnez	a5,20003b38 <headBlocked+0x4c>
20003b24:	fec42783          	lw	a5,-20(s0)
20003b28:	0047a783          	lw	a5,4(a5)
20003b2c:	fef42423          	sw	a5,-24(s0)
20003b30:	fe842783          	lw	a5,-24(s0)
20003b34:	0080006f          	j	20003b3c <headBlocked+0x50>
20003b38:	00000793          	li	a5,0
20003b3c:	00078513          	mv	a0,a5
20003b40:	02c12083          	lw	ra,44(sp)
20003b44:	02812403          	lw	s0,40(sp)
20003b48:	03010113          	addi	sp,sp,48
20003b4c:	00008067          	ret

20003b50 <initASL>:
20003b50:	fe010113          	addi	sp,sp,-32
20003b54:	00112e23          	sw	ra,28(sp)
20003b58:	00812c23          	sw	s0,24(sp)
20003b5c:	02010413          	addi	s0,sp,32
20003b60:	fe042623          	sw	zero,-20(s0)
20003b64:	04c0006f          	j	20003bb0 <initASL+0x60>
20003b68:	fec42703          	lw	a4,-20(s0)
20003b6c:	00070793          	mv	a5,a4
20003b70:	00279793          	slli	a5,a5,0x2
20003b74:	00e787b3          	add	a5,a5,a4
20003b78:	00279793          	slli	a5,a5,0x2
20003b7c:	20008737          	lui	a4,0x20008
20003b80:	b4c70713          	addi	a4,a4,-1204 # 20007b4c <semd_table>
20003b84:	00e787b3          	add	a5,a5,a4
20003b88:	fef42423          	sw	a5,-24(s0)
20003b8c:	fe842783          	lw	a5,-24(s0)
20003b90:	00c78713          	addi	a4,a5,12
20003b94:	200067b7          	lui	a5,0x20006
20003b98:	01878593          	addi	a1,a5,24 # 20006018 <semdFree_h>
20003b9c:	00070513          	mv	a0,a4
20003ba0:	a45ff0ef          	jal	ra,200035e4 <list_add_tail>
20003ba4:	fec42783          	lw	a5,-20(s0)
20003ba8:	00178793          	addi	a5,a5,1
20003bac:	fef42623          	sw	a5,-20(s0)
20003bb0:	fec42703          	lw	a4,-20(s0)
20003bb4:	01300793          	li	a5,19
20003bb8:	fae7d8e3          	bge	a5,a4,20003b68 <initASL+0x18>
20003bbc:	00000013          	nop
20003bc0:	00000013          	nop
20003bc4:	01c12083          	lw	ra,28(sp)
20003bc8:	01812403          	lw	s0,24(sp)
20003bcc:	02010113          	addi	sp,sp,32
20003bd0:	00008067          	ret

20003bd4 <plt_time_handler>:
20003bd4:	fe010113          	addi	sp,sp,-32
20003bd8:	00112e23          	sw	ra,28(sp)
20003bdc:	00812c23          	sw	s0,24(sp)
20003be0:	02010413          	addi	s0,sp,32
20003be4:	fea42623          	sw	a0,-20(s0)
20003be8:	ffe00513          	li	a0,-2
20003bec:	6b4010ef          	jal	ra,200052a0 <setTIMER>
20003bf0:	200067b7          	lui	a5,0x20006
20003bf4:	0907a783          	lw	a5,144(a5) # 20006090 <currentActiveProc>
20003bf8:	01c78793          	addi	a5,a5,28
20003bfc:	00078593          	mv	a1,a5
20003c00:	fec42503          	lw	a0,-20(s0)
20003c04:	041000ef          	jal	ra,20004444 <copy_state>
20003c08:	200067b7          	lui	a5,0x20006
20003c0c:	0907a783          	lw	a5,144(a5) # 20006090 <currentActiveProc>
20003c10:	0b47a703          	lw	a4,180(a5)
20003c14:	200067b7          	lui	a5,0x20006
20003c18:	0907a783          	lw	a5,144(a5) # 20006090 <currentActiveProc>
20003c1c:	00078593          	mv	a1,a5
20003c20:	00070513          	mv	a0,a4
20003c24:	0c1010ef          	jal	ra,200054e4 <insert_ready_queue>
20003c28:	310010ef          	jal	ra,20004f38 <scheduler>
20003c2c:	00000013          	nop
20003c30:	01c12083          	lw	ra,28(sp)
20003c34:	01812403          	lw	s0,24(sp)
20003c38:	02010113          	addi	sp,sp,32
20003c3c:	00008067          	ret

20003c40 <intervall_timer_handler>:
20003c40:	fd010113          	addi	sp,sp,-48
20003c44:	02112623          	sw	ra,44(sp)
20003c48:	02812423          	sw	s0,40(sp)
20003c4c:	03010413          	addi	s0,sp,48
20003c50:	fca42e23          	sw	a0,-36(s0)
20003c54:	100007b7          	lui	a5,0x10000
20003c58:	02478793          	addi	a5,a5,36 # 10000024 <_ftext-0x10000fdc>
20003c5c:	0007a683          	lw	a3,0(a5)
20003c60:	100007b7          	lui	a5,0x10000
20003c64:	02078793          	addi	a5,a5,32 # 10000020 <_ftext-0x10000fe0>
20003c68:	00018737          	lui	a4,0x18
20003c6c:	6a070713          	addi	a4,a4,1696 # 186a0 <_ftext-0x1ffe8960>
20003c70:	02e68733          	mul	a4,a3,a4
20003c74:	00e7a023          	sw	a4,0(a5)
20003c78:	02c0006f          	j	20003ca4 <intervall_timer_handler+0x64>
20003c7c:	200067b7          	lui	a5,0x20006
20003c80:	07c7a783          	lw	a5,124(a5) # 2000607c <blockedProc>
20003c84:	fff78713          	addi	a4,a5,-1
20003c88:	200067b7          	lui	a5,0x20006
20003c8c:	06e7ae23          	sw	a4,124(a5) # 2000607c <blockedProc>
20003c90:	fec42783          	lw	a5,-20(s0)
20003c94:	0b47a783          	lw	a5,180(a5)
20003c98:	fec42583          	lw	a1,-20(s0)
20003c9c:	00078513          	mv	a0,a5
20003ca0:	045010ef          	jal	ra,200054e4 <insert_ready_queue>
20003ca4:	200067b7          	lui	a5,0x20006
20003ca8:	09c78513          	addi	a0,a5,156 # 2000609c <semIntervalTimer>
20003cac:	cf5ff0ef          	jal	ra,200039a0 <removeBlocked>
20003cb0:	fea42623          	sw	a0,-20(s0)
20003cb4:	fec42783          	lw	a5,-20(s0)
20003cb8:	fc0792e3          	bnez	a5,20003c7c <intervall_timer_handler+0x3c>
20003cbc:	200067b7          	lui	a5,0x20006
20003cc0:	0807ae23          	sw	zero,156(a5) # 2000609c <semIntervalTimer>
20003cc4:	fdc42503          	lw	a0,-36(s0)
20003cc8:	398010ef          	jal	ra,20005060 <load_or_scheduler>
20003ccc:	00000013          	nop
20003cd0:	02c12083          	lw	ra,44(sp)
20003cd4:	02812403          	lw	s0,40(sp)
20003cd8:	03010113          	addi	sp,sp,48
20003cdc:	00008067          	ret

20003ce0 <getDeviceSemaphore>:
20003ce0:	fe010113          	addi	sp,sp,-32
20003ce4:	00812e23          	sw	s0,28(sp)
20003ce8:	02010413          	addi	s0,sp,32
20003cec:	fea42623          	sw	a0,-20(s0)
20003cf0:	feb42423          	sw	a1,-24(s0)
20003cf4:	fec42703          	lw	a4,-20(s0)
20003cf8:	00600793          	li	a5,6
20003cfc:	08f70663          	beq	a4,a5,20003d88 <getDeviceSemaphore+0xa8>
20003d00:	fec42703          	lw	a4,-20(s0)
20003d04:	00600793          	li	a5,6
20003d08:	08e7cc63          	blt	a5,a4,20003da0 <getDeviceSemaphore+0xc0>
20003d0c:	fec42703          	lw	a4,-20(s0)
20003d10:	00500793          	li	a5,5
20003d14:	04f70e63          	beq	a4,a5,20003d70 <getDeviceSemaphore+0x90>
20003d18:	fec42703          	lw	a4,-20(s0)
20003d1c:	00500793          	li	a5,5
20003d20:	08e7c063          	blt	a5,a4,20003da0 <getDeviceSemaphore+0xc0>
20003d24:	fec42703          	lw	a4,-20(s0)
20003d28:	00300793          	li	a5,3
20003d2c:	00f70a63          	beq	a4,a5,20003d40 <getDeviceSemaphore+0x60>
20003d30:	fec42703          	lw	a4,-20(s0)
20003d34:	00400793          	li	a5,4
20003d38:	02f70063          	beq	a4,a5,20003d58 <getDeviceSemaphore+0x78>
20003d3c:	0640006f          	j	20003da0 <getDeviceSemaphore+0xc0>
20003d40:	fe842783          	lw	a5,-24(s0)
20003d44:	00279713          	slli	a4,a5,0x2
20003d48:	200087b7          	lui	a5,0x20008
20003d4c:	cdc78793          	addi	a5,a5,-804 # 20007cdc <semDiskDevice>
20003d50:	00f707b3          	add	a5,a4,a5
20003d54:	0500006f          	j	20003da4 <getDeviceSemaphore+0xc4>
20003d58:	fe842783          	lw	a5,-24(s0)
20003d5c:	00279713          	slli	a4,a5,0x2
20003d60:	200087b7          	lui	a5,0x20008
20003d64:	cfc78793          	addi	a5,a5,-772 # 20007cfc <semFlashDevice>
20003d68:	00f707b3          	add	a5,a4,a5
20003d6c:	0380006f          	j	20003da4 <getDeviceSemaphore+0xc4>
20003d70:	fe842783          	lw	a5,-24(s0)
20003d74:	00279713          	slli	a4,a5,0x2
20003d78:	200087b7          	lui	a5,0x20008
20003d7c:	d1c78793          	addi	a5,a5,-740 # 20007d1c <semNetworkDevice>
20003d80:	00f707b3          	add	a5,a4,a5
20003d84:	0200006f          	j	20003da4 <getDeviceSemaphore+0xc4>
20003d88:	fe842783          	lw	a5,-24(s0)
20003d8c:	00279713          	slli	a4,a5,0x2
20003d90:	200087b7          	lui	a5,0x20008
20003d94:	d3c78793          	addi	a5,a5,-708 # 20007d3c <semPrinterDevice>
20003d98:	00f707b3          	add	a5,a4,a5
20003d9c:	0080006f          	j	20003da4 <getDeviceSemaphore+0xc4>
20003da0:	00000793          	li	a5,0
20003da4:	00078513          	mv	a0,a5
20003da8:	01c12403          	lw	s0,28(sp)
20003dac:	02010113          	addi	sp,sp,32
20003db0:	00008067          	ret

20003db4 <device_handler>:
20003db4:	fb010113          	addi	sp,sp,-80
20003db8:	04112623          	sw	ra,76(sp)
20003dbc:	04812423          	sw	s0,72(sp)
20003dc0:	05010413          	addi	s0,sp,80
20003dc4:	faa42e23          	sw	a0,-68(s0)
20003dc8:	fab42c23          	sw	a1,-72(s0)
20003dcc:	fe042423          	sw	zero,-24(s0)
20003dd0:	fc042e23          	sw	zero,-36(s0)
20003dd4:	100007b7          	lui	a5,0x10000
20003dd8:	fcf42c23          	sw	a5,-40(s0)
20003ddc:	fbc42783          	lw	a5,-68(s0)
20003de0:	ffd78793          	addi	a5,a5,-3 # ffffffd <_ftext-0x10001003>
20003de4:	fd842703          	lw	a4,-40(s0)
20003de8:	01078793          	addi	a5,a5,16
20003dec:	00279793          	slli	a5,a5,0x2
20003df0:	00f707b3          	add	a5,a4,a5
20003df4:	0007a783          	lw	a5,0(a5)
20003df8:	fcf42a23          	sw	a5,-44(s0)
20003dfc:	00100793          	li	a5,1
20003e00:	fef42223          	sw	a5,-28(s0)
20003e04:	fe042023          	sw	zero,-32(s0)
20003e08:	1400006f          	j	20003f48 <device_handler+0x194>
20003e0c:	fd442703          	lw	a4,-44(s0)
20003e10:	fe442783          	lw	a5,-28(s0)
20003e14:	00f777b3          	and	a5,a4,a5
20003e18:	10078c63          	beqz	a5,20003f30 <device_handler+0x17c>
20003e1c:	fe042783          	lw	a5,-32(s0)
20003e20:	fcf42e23          	sw	a5,-36(s0)
20003e24:	fbc42703          	lw	a4,-68(s0)
20003e28:	00700793          	li	a5,7
20003e2c:	0af71a63          	bne	a4,a5,20003ee0 <device_handler+0x12c>
20003e30:	fbc42783          	lw	a5,-68(s0)
20003e34:	ffd78793          	addi	a5,a5,-3
20003e38:	00779713          	slli	a4,a5,0x7
20003e3c:	100007b7          	lui	a5,0x10000
20003e40:	05478793          	addi	a5,a5,84 # 10000054 <_ftext-0x10000fac>
20003e44:	00f70733          	add	a4,a4,a5
20003e48:	fdc42783          	lw	a5,-36(s0)
20003e4c:	00479793          	slli	a5,a5,0x4
20003e50:	00f707b3          	add	a5,a4,a5
20003e54:	fcf42423          	sw	a5,-56(s0)
20003e58:	fc842783          	lw	a5,-56(s0)
20003e5c:	0087a703          	lw	a4,8(a5)
20003e60:	00100793          	li	a5,1
20003e64:	04f70463          	beq	a4,a5,20003eac <device_handler+0xf8>
20003e68:	fc842783          	lw	a5,-56(s0)
20003e6c:	0087a703          	lw	a4,8(a5)
20003e70:	00300793          	li	a5,3
20003e74:	02f70c63          	beq	a4,a5,20003eac <device_handler+0xf8>
20003e78:	fc842783          	lw	a5,-56(s0)
20003e7c:	0087a783          	lw	a5,8(a5)
20003e80:	fef42623          	sw	a5,-20(s0)
20003e84:	fc842783          	lw	a5,-56(s0)
20003e88:	00100713          	li	a4,1
20003e8c:	00e7a623          	sw	a4,12(a5)
20003e90:	fdc42783          	lw	a5,-36(s0)
20003e94:	00279713          	slli	a4,a5,0x2
20003e98:	200087b7          	lui	a5,0x20008
20003e9c:	d7c78793          	addi	a5,a5,-644 # 20007d7c <semTerminalDeviceWriting>
20003ea0:	00f707b3          	add	a5,a4,a5
20003ea4:	fef42423          	sw	a5,-24(s0)
20003ea8:	0880006f          	j	20003f30 <device_handler+0x17c>
20003eac:	fc842783          	lw	a5,-56(s0)
20003eb0:	0007a783          	lw	a5,0(a5)
20003eb4:	fef42623          	sw	a5,-20(s0)
20003eb8:	fc842783          	lw	a5,-56(s0)
20003ebc:	00100713          	li	a4,1
20003ec0:	00e7a223          	sw	a4,4(a5)
20003ec4:	fdc42783          	lw	a5,-36(s0)
20003ec8:	00279713          	slli	a4,a5,0x2
20003ecc:	200087b7          	lui	a5,0x20008
20003ed0:	d5c78793          	addi	a5,a5,-676 # 20007d5c <semTerminalDeviceReading>
20003ed4:	00f707b3          	add	a5,a4,a5
20003ed8:	fef42423          	sw	a5,-24(s0)
20003edc:	0540006f          	j	20003f30 <device_handler+0x17c>
20003ee0:	fbc42783          	lw	a5,-68(s0)
20003ee4:	ffd78793          	addi	a5,a5,-3
20003ee8:	00779713          	slli	a4,a5,0x7
20003eec:	100007b7          	lui	a5,0x10000
20003ef0:	05478793          	addi	a5,a5,84 # 10000054 <_ftext-0x10000fac>
20003ef4:	00f70733          	add	a4,a4,a5
20003ef8:	fdc42783          	lw	a5,-36(s0)
20003efc:	00479793          	slli	a5,a5,0x4
20003f00:	00f707b3          	add	a5,a4,a5
20003f04:	fcf42623          	sw	a5,-52(s0)
20003f08:	fdc42583          	lw	a1,-36(s0)
20003f0c:	fbc42503          	lw	a0,-68(s0)
20003f10:	dd1ff0ef          	jal	ra,20003ce0 <getDeviceSemaphore>
20003f14:	fea42423          	sw	a0,-24(s0)
20003f18:	fcc42783          	lw	a5,-52(s0)
20003f1c:	0007a783          	lw	a5,0(a5)
20003f20:	fef42623          	sw	a5,-20(s0)
20003f24:	fcc42783          	lw	a5,-52(s0)
20003f28:	00100713          	li	a4,1
20003f2c:	00e7a223          	sw	a4,4(a5)
20003f30:	fe442783          	lw	a5,-28(s0)
20003f34:	00179793          	slli	a5,a5,0x1
20003f38:	fef42223          	sw	a5,-28(s0)
20003f3c:	fe042783          	lw	a5,-32(s0)
20003f40:	00178793          	addi	a5,a5,1
20003f44:	fef42023          	sw	a5,-32(s0)
20003f48:	fe042703          	lw	a4,-32(s0)
20003f4c:	00700793          	li	a5,7
20003f50:	eae7dee3          	bge	a5,a4,20003e0c <device_handler+0x58>
20003f54:	00000593          	li	a1,0
20003f58:	fe842503          	lw	a0,-24(s0)
20003f5c:	381000ef          	jal	ra,20004adc <V>
20003f60:	fca42823          	sw	a0,-48(s0)
20003f64:	fd042783          	lw	a5,-48(s0)
20003f68:	00078a63          	beqz	a5,20003f7c <device_handler+0x1c8>
20003f6c:	200067b7          	lui	a5,0x20006
20003f70:	0907a783          	lw	a5,144(a5) # 20006090 <currentActiveProc>
20003f74:	fd042703          	lw	a4,-48(s0)
20003f78:	02f71e63          	bne	a4,a5,20003fb4 <device_handler+0x200>
20003f7c:	200067b7          	lui	a5,0x20006
20003f80:	0907a783          	lw	a5,144(a5) # 20006090 <currentActiveProc>
20003f84:	fec42703          	lw	a4,-20(s0)
20003f88:	02e7a823          	sw	a4,48(a5)
20003f8c:	200067b7          	lui	a5,0x20006
20003f90:	0907a783          	lw	a5,144(a5) # 20006090 <currentActiveProc>
20003f94:	0b47a703          	lw	a4,180(a5)
20003f98:	200067b7          	lui	a5,0x20006
20003f9c:	0907a783          	lw	a5,144(a5) # 20006090 <currentActiveProc>
20003fa0:	00078593          	mv	a1,a5
20003fa4:	00070513          	mv	a0,a4
20003fa8:	53c010ef          	jal	ra,200054e4 <insert_ready_queue>
20003fac:	78d000ef          	jal	ra,20004f38 <scheduler>
20003fb0:	01c0006f          	j	20003fcc <device_handler+0x218>
20003fb4:	fd042783          	lw	a5,-48(s0)
20003fb8:	fec42703          	lw	a4,-20(s0)
20003fbc:	02e7a823          	sw	a4,48(a5)
20003fc0:	fb842503          	lw	a0,-72(s0)
20003fc4:	09c010ef          	jal	ra,20005060 <load_or_scheduler>
20003fc8:	00000013          	nop
20003fcc:	00000013          	nop
20003fd0:	04c12083          	lw	ra,76(sp)
20003fd4:	04812403          	lw	s0,72(sp)
20003fd8:	05010113          	addi	sp,sp,80
20003fdc:	00008067          	ret

20003fe0 <pass_up_or_die>:
20003fe0:	fd010113          	addi	sp,sp,-48
20003fe4:	02112623          	sw	ra,44(sp)
20003fe8:	02812423          	sw	s0,40(sp)
20003fec:	03010413          	addi	s0,sp,48
20003ff0:	fca42e23          	sw	a0,-36(s0)
20003ff4:	fcb42c23          	sw	a1,-40(s0)
20003ff8:	200067b7          	lui	a5,0x20006
20003ffc:	0907a783          	lw	a5,144(a5) # 20006090 <currentActiveProc>
20004000:	0e078863          	beqz	a5,200040f0 <pass_up_or_die+0x110>
20004004:	200067b7          	lui	a5,0x20006
20004008:	0907a783          	lw	a5,144(a5) # 20006090 <currentActiveProc>
2000400c:	0b07a783          	lw	a5,176(a5)
20004010:	00079a63          	bnez	a5,20004024 <pass_up_or_die+0x44>
20004014:	00000513          	li	a0,0
20004018:	7cc000ef          	jal	ra,200047e4 <term_proc>
2000401c:	71d000ef          	jal	ra,20004f38 <scheduler>
20004020:	0d00006f          	j	200040f0 <pass_up_or_die+0x110>
20004024:	200067b7          	lui	a5,0x20006
20004028:	0907a783          	lw	a5,144(a5) # 20006090 <currentActiveProc>
2000402c:	0b07a703          	lw	a4,176(a5)
20004030:	fdc42683          	lw	a3,-36(s0)
20004034:	08c00793          	li	a5,140
20004038:	02f687b3          	mul	a5,a3,a5
2000403c:	00f707b3          	add	a5,a4,a5
20004040:	00c78793          	addi	a5,a5,12
20004044:	00078593          	mv	a1,a5
20004048:	fd842503          	lw	a0,-40(s0)
2000404c:	3f8000ef          	jal	ra,20004444 <copy_state>
20004050:	200067b7          	lui	a5,0x20006
20004054:	0907a783          	lw	a5,144(a5) # 20006090 <currentActiveProc>
20004058:	0b07a683          	lw	a3,176(a5)
2000405c:	fdc42703          	lw	a4,-36(s0)
20004060:	00070793          	mv	a5,a4
20004064:	00179793          	slli	a5,a5,0x1
20004068:	00e787b3          	add	a5,a5,a4
2000406c:	00279793          	slli	a5,a5,0x2
20004070:	00f687b3          	add	a5,a3,a5
20004074:	1247a783          	lw	a5,292(a5)
20004078:	fef42623          	sw	a5,-20(s0)
2000407c:	200067b7          	lui	a5,0x20006
20004080:	0907a783          	lw	a5,144(a5) # 20006090 <currentActiveProc>
20004084:	0b07a683          	lw	a3,176(a5)
20004088:	fdc42703          	lw	a4,-36(s0)
2000408c:	00070793          	mv	a5,a4
20004090:	00179793          	slli	a5,a5,0x1
20004094:	00e787b3          	add	a5,a5,a4
20004098:	00279793          	slli	a5,a5,0x2
2000409c:	00f687b3          	add	a5,a3,a5
200040a0:	1287a783          	lw	a5,296(a5)
200040a4:	fef42423          	sw	a5,-24(s0)
200040a8:	200067b7          	lui	a5,0x20006
200040ac:	0907a783          	lw	a5,144(a5) # 20006090 <currentActiveProc>
200040b0:	0b07a683          	lw	a3,176(a5)
200040b4:	fdc42703          	lw	a4,-36(s0)
200040b8:	00070793          	mv	a5,a4
200040bc:	00179793          	slli	a5,a5,0x1
200040c0:	00e787b3          	add	a5,a5,a4
200040c4:	00279793          	slli	a5,a5,0x2
200040c8:	00f687b3          	add	a5,a3,a5
200040cc:	12c7a783          	lw	a5,300(a5)
200040d0:	fef42223          	sw	a5,-28(s0)
200040d4:	fec42783          	lw	a5,-20(s0)
200040d8:	fe842703          	lw	a4,-24(s0)
200040dc:	fe442683          	lw	a3,-28(s0)
200040e0:	00068613          	mv	a2,a3
200040e4:	00070593          	mv	a1,a4
200040e8:	00078513          	mv	a0,a5
200040ec:	234010ef          	jal	ra,20005320 <LDCXT>
200040f0:	00000013          	nop
200040f4:	02c12083          	lw	ra,44(sp)
200040f8:	02812403          	lw	s0,40(sp)
200040fc:	03010113          	addi	sp,sp,48
20004100:	00008067          	ret

20004104 <exception_handler>:
20004104:	fe010113          	addi	sp,sp,-32
20004108:	00112e23          	sw	ra,28(sp)
2000410c:	00812c23          	sw	s0,24(sp)
20004110:	02010413          	addi	s0,sp,32
20004114:	0ffff7b7          	lui	a5,0xffff
20004118:	fef42623          	sw	a5,-20(s0)
2000411c:	15c010ef          	jal	ra,20005278 <getCAUSE>
20004120:	00050793          	mv	a5,a0
20004124:	0027d793          	srli	a5,a5,0x2
20004128:	01f7f793          	andi	a5,a5,31
2000412c:	fef42423          	sw	a5,-24(s0)
20004130:	fe842703          	lw	a4,-24(s0)
20004134:	00c00793          	li	a5,12
20004138:	04e7e863          	bltu	a5,a4,20004188 <exception_handler+0x84>
2000413c:	fe842783          	lw	a5,-24(s0)
20004140:	00279713          	slli	a4,a5,0x2
20004144:	200067b7          	lui	a5,0x20006
20004148:	c3c78793          	addi	a5,a5,-964 # 20005c3c <main+0x6ac>
2000414c:	00f707b3          	add	a5,a4,a5
20004150:	0007a783          	lw	a5,0(a5)
20004154:	00078067          	jr	a5
20004158:	fec42503          	lw	a0,-20(s0)
2000415c:	048000ef          	jal	ra,200041a4 <interrupt_handler>
20004160:	0300006f          	j	20004190 <exception_handler+0x8c>
20004164:	fec42503          	lw	a0,-20(s0)
20004168:	144000ef          	jal	ra,200042ac <tlb_handler>
2000416c:	0240006f          	j	20004190 <exception_handler+0x8c>
20004170:	fec42503          	lw	a0,-20(s0)
20004174:	16c000ef          	jal	ra,200042e0 <trap_handler>
20004178:	0180006f          	j	20004190 <exception_handler+0x8c>
2000417c:	fec42503          	lw	a0,-20(s0)
20004180:	194000ef          	jal	ra,20004314 <syscall_handler>
20004184:	00c0006f          	j	20004190 <exception_handler+0x8c>
20004188:	1d4010ef          	jal	ra,2000535c <PANIC>
2000418c:	00000013          	nop
20004190:	00000013          	nop
20004194:	01c12083          	lw	ra,28(sp)
20004198:	01812403          	lw	s0,24(sp)
2000419c:	02010113          	addi	sp,sp,32
200041a0:	00008067          	ret

200041a4 <interrupt_handler>:
200041a4:	fd010113          	addi	sp,sp,-48
200041a8:	02112623          	sw	ra,44(sp)
200041ac:	02812423          	sw	s0,40(sp)
200041b0:	03010413          	addi	s0,sp,48
200041b4:	fca42e23          	sw	a0,-36(s0)
200041b8:	0c0010ef          	jal	ra,20005278 <getCAUSE>
200041bc:	00050793          	mv	a5,a0
200041c0:	fef42623          	sw	a5,-20(s0)
200041c4:	fec42783          	lw	a5,-20(s0)
200041c8:	2007f793          	andi	a5,a5,512
200041cc:	00078863          	beqz	a5,200041dc <interrupt_handler+0x38>
200041d0:	fdc42503          	lw	a0,-36(s0)
200041d4:	a01ff0ef          	jal	ra,20003bd4 <plt_time_handler>
200041d8:	0bc0006f          	j	20004294 <interrupt_handler+0xf0>
200041dc:	fec42783          	lw	a5,-20(s0)
200041e0:	4007f793          	andi	a5,a5,1024
200041e4:	00078863          	beqz	a5,200041f4 <interrupt_handler+0x50>
200041e8:	fdc42503          	lw	a0,-36(s0)
200041ec:	a55ff0ef          	jal	ra,20003c40 <intervall_timer_handler>
200041f0:	0a40006f          	j	20004294 <interrupt_handler+0xf0>
200041f4:	fec42703          	lw	a4,-20(s0)
200041f8:	000017b7          	lui	a5,0x1
200041fc:	80078793          	addi	a5,a5,-2048 # 800 <_ftext-0x20000800>
20004200:	00f777b3          	and	a5,a4,a5
20004204:	00078a63          	beqz	a5,20004218 <interrupt_handler+0x74>
20004208:	fdc42583          	lw	a1,-36(s0)
2000420c:	00300513          	li	a0,3
20004210:	ba5ff0ef          	jal	ra,20003db4 <device_handler>
20004214:	0800006f          	j	20004294 <interrupt_handler+0xf0>
20004218:	fec42703          	lw	a4,-20(s0)
2000421c:	000017b7          	lui	a5,0x1
20004220:	00f777b3          	and	a5,a4,a5
20004224:	00078a63          	beqz	a5,20004238 <interrupt_handler+0x94>
20004228:	fdc42583          	lw	a1,-36(s0)
2000422c:	00400513          	li	a0,4
20004230:	b85ff0ef          	jal	ra,20003db4 <device_handler>
20004234:	0600006f          	j	20004294 <interrupt_handler+0xf0>
20004238:	fec42703          	lw	a4,-20(s0)
2000423c:	000027b7          	lui	a5,0x2
20004240:	00f777b3          	and	a5,a4,a5
20004244:	00078a63          	beqz	a5,20004258 <interrupt_handler+0xb4>
20004248:	fdc42583          	lw	a1,-36(s0)
2000424c:	00500513          	li	a0,5
20004250:	b65ff0ef          	jal	ra,20003db4 <device_handler>
20004254:	0400006f          	j	20004294 <interrupt_handler+0xf0>
20004258:	fec42703          	lw	a4,-20(s0)
2000425c:	000047b7          	lui	a5,0x4
20004260:	00f777b3          	and	a5,a4,a5
20004264:	00078a63          	beqz	a5,20004278 <interrupt_handler+0xd4>
20004268:	fdc42583          	lw	a1,-36(s0)
2000426c:	00600513          	li	a0,6
20004270:	b45ff0ef          	jal	ra,20003db4 <device_handler>
20004274:	0200006f          	j	20004294 <interrupt_handler+0xf0>
20004278:	fec42703          	lw	a4,-20(s0)
2000427c:	000087b7          	lui	a5,0x8
20004280:	00f777b3          	and	a5,a4,a5
20004284:	00078863          	beqz	a5,20004294 <interrupt_handler+0xf0>
20004288:	fdc42583          	lw	a1,-36(s0)
2000428c:	00700513          	li	a0,7
20004290:	b25ff0ef          	jal	ra,20003db4 <device_handler>
20004294:	0c8010ef          	jal	ra,2000535c <PANIC>
20004298:	00000013          	nop
2000429c:	02c12083          	lw	ra,44(sp)
200042a0:	02812403          	lw	s0,40(sp)
200042a4:	03010113          	addi	sp,sp,48
200042a8:	00008067          	ret

200042ac <tlb_handler>:
200042ac:	fe010113          	addi	sp,sp,-32
200042b0:	00112e23          	sw	ra,28(sp)
200042b4:	00812c23          	sw	s0,24(sp)
200042b8:	02010413          	addi	s0,sp,32
200042bc:	fea42623          	sw	a0,-20(s0)
200042c0:	fec42583          	lw	a1,-20(s0)
200042c4:	00000513          	li	a0,0
200042c8:	d19ff0ef          	jal	ra,20003fe0 <pass_up_or_die>
200042cc:	00000013          	nop
200042d0:	01c12083          	lw	ra,28(sp)
200042d4:	01812403          	lw	s0,24(sp)
200042d8:	02010113          	addi	sp,sp,32
200042dc:	00008067          	ret

200042e0 <trap_handler>:
200042e0:	fe010113          	addi	sp,sp,-32
200042e4:	00112e23          	sw	ra,28(sp)
200042e8:	00812c23          	sw	s0,24(sp)
200042ec:	02010413          	addi	s0,sp,32
200042f0:	fea42623          	sw	a0,-20(s0)
200042f4:	fec42583          	lw	a1,-20(s0)
200042f8:	00100513          	li	a0,1
200042fc:	ce5ff0ef          	jal	ra,20003fe0 <pass_up_or_die>
20004300:	00000013          	nop
20004304:	01c12083          	lw	ra,28(sp)
20004308:	01812403          	lw	s0,24(sp)
2000430c:	02010113          	addi	sp,sp,32
20004310:	00008067          	ret

20004314 <syscall_handler>:
20004314:	fd010113          	addi	sp,sp,-48
20004318:	02112623          	sw	ra,44(sp)
2000431c:	02812423          	sw	s0,40(sp)
20004320:	03010413          	addi	s0,sp,48
20004324:	fca42e23          	sw	a0,-36(s0)
20004328:	fdc42783          	lw	a5,-36(s0)
2000432c:	01c7a783          	lw	a5,28(a5) # 801c <_ftext-0x1fff8fe4>
20004330:	fef42623          	sw	a5,-20(s0)
20004334:	fdc42783          	lw	a5,-36(s0)
20004338:	00c7a783          	lw	a5,12(a5)
2000433c:	00478713          	addi	a4,a5,4
20004340:	fdc42783          	lw	a5,-36(s0)
20004344:	00e7a623          	sw	a4,12(a5)
20004348:	fec42783          	lw	a5,-20(s0)
2000434c:	02f04863          	bgtz	a5,2000437c <syscall_handler+0x68>
20004350:	fdc42783          	lw	a5,-36(s0)
20004354:	0087a783          	lw	a5,8(a5)
20004358:	01c79793          	slli	a5,a5,0x1c
2000435c:	0207d063          	bgez	a5,2000437c <syscall_handler+0x68>
20004360:	fdc42783          	lw	a5,-36(s0)
20004364:	02800713          	li	a4,40
20004368:	00e7a223          	sw	a4,4(a5)
2000436c:	fdc42583          	lw	a1,-36(s0)
20004370:	00100513          	li	a0,1
20004374:	c6dff0ef          	jal	ra,20003fe0 <pass_up_or_die>
20004378:	0b00006f          	j	20004428 <syscall_handler+0x114>
2000437c:	fec42783          	lw	a5,-20(s0)
20004380:	00a78793          	addi	a5,a5,10
20004384:	00900713          	li	a4,9
20004388:	08f76a63          	bltu	a4,a5,2000441c <syscall_handler+0x108>
2000438c:	00279713          	slli	a4,a5,0x2
20004390:	200067b7          	lui	a5,0x20006
20004394:	c7078793          	addi	a5,a5,-912 # 20005c70 <main+0x6e0>
20004398:	00f707b3          	add	a5,a4,a5
2000439c:	0007a783          	lw	a5,0(a5)
200043a0:	00078067          	jr	a5
200043a4:	fdc42503          	lw	a0,-36(s0)
200043a8:	4f0000ef          	jal	ra,20004898 <create_process>
200043ac:	07c0006f          	j	20004428 <syscall_handler+0x114>
200043b0:	fdc42503          	lw	a0,-36(s0)
200043b4:	5d0000ef          	jal	ra,20004984 <terminate_process>
200043b8:	0700006f          	j	20004428 <syscall_handler+0x114>
200043bc:	fdc42503          	lw	a0,-36(s0)
200043c0:	608000ef          	jal	ra,200049c8 <passeren>
200043c4:	0640006f          	j	20004428 <syscall_handler+0x114>
200043c8:	fdc42503          	lw	a0,-36(s0)
200043cc:	6c8000ef          	jal	ra,20004a94 <verhogen>
200043d0:	0580006f          	j	20004428 <syscall_handler+0x114>
200043d4:	fdc42503          	lw	a0,-36(s0)
200043d8:	78c000ef          	jal	ra,20004b64 <do_IO_device>
200043dc:	04c0006f          	j	20004428 <syscall_handler+0x114>
200043e0:	fdc42503          	lw	a0,-36(s0)
200043e4:	161000ef          	jal	ra,20004d44 <get_cpu_time>
200043e8:	0400006f          	j	20004428 <syscall_handler+0x114>
200043ec:	fdc42503          	lw	a0,-36(s0)
200043f0:	1a1000ef          	jal	ra,20004d90 <wait_for_clock>
200043f4:	0340006f          	j	20004428 <syscall_handler+0x114>
200043f8:	fdc42503          	lw	a0,-36(s0)
200043fc:	1d5000ef          	jal	ra,20004dd0 <get_support_data>
20004400:	0280006f          	j	20004428 <syscall_handler+0x114>
20004404:	fdc42503          	lw	a0,-36(s0)
20004408:	229000ef          	jal	ra,20004e30 <get_ID_process>
2000440c:	01c0006f          	j	20004428 <syscall_handler+0x114>
20004410:	fdc42503          	lw	a0,-36(s0)
20004414:	299000ef          	jal	ra,20004eac <yield>
20004418:	0100006f          	j	20004428 <syscall_handler+0x114>
2000441c:	fdc42503          	lw	a0,-36(s0)
20004420:	ec1ff0ef          	jal	ra,200042e0 <trap_handler>
20004424:	00000013          	nop
20004428:	fdc42503          	lw	a0,-36(s0)
2000442c:	435000ef          	jal	ra,20005060 <load_or_scheduler>
20004430:	00000013          	nop
20004434:	02c12083          	lw	ra,44(sp)
20004438:	02812403          	lw	s0,40(sp)
2000443c:	03010113          	addi	sp,sp,48
20004440:	00008067          	ret

20004444 <copy_state>:
20004444:	fd010113          	addi	sp,sp,-48
20004448:	02812623          	sw	s0,44(sp)
2000444c:	03010413          	addi	s0,sp,48
20004450:	fca42e23          	sw	a0,-36(s0)
20004454:	fcb42c23          	sw	a1,-40(s0)
20004458:	fdc42783          	lw	a5,-36(s0)
2000445c:	0047a703          	lw	a4,4(a5)
20004460:	fd842783          	lw	a5,-40(s0)
20004464:	00e7a223          	sw	a4,4(a5)
20004468:	fdc42783          	lw	a5,-36(s0)
2000446c:	0007a703          	lw	a4,0(a5)
20004470:	fd842783          	lw	a5,-40(s0)
20004474:	00e7a023          	sw	a4,0(a5)
20004478:	fe042623          	sw	zero,-20(s0)
2000447c:	0400006f          	j	200044bc <copy_state+0x78>
20004480:	fdc42703          	lw	a4,-36(s0)
20004484:	fec42783          	lw	a5,-20(s0)
20004488:	00478793          	addi	a5,a5,4
2000448c:	00279793          	slli	a5,a5,0x2
20004490:	00f707b3          	add	a5,a4,a5
20004494:	0007a703          	lw	a4,0(a5)
20004498:	fd842683          	lw	a3,-40(s0)
2000449c:	fec42783          	lw	a5,-20(s0)
200044a0:	00478793          	addi	a5,a5,4
200044a4:	00279793          	slli	a5,a5,0x2
200044a8:	00f687b3          	add	a5,a3,a5
200044ac:	00e7a023          	sw	a4,0(a5)
200044b0:	fec42783          	lw	a5,-20(s0)
200044b4:	00178793          	addi	a5,a5,1
200044b8:	fef42623          	sw	a5,-20(s0)
200044bc:	fec42703          	lw	a4,-20(s0)
200044c0:	01c00793          	li	a5,28
200044c4:	fae7dee3          	bge	a5,a4,20004480 <copy_state+0x3c>
200044c8:	fdc42783          	lw	a5,-36(s0)
200044cc:	0847a703          	lw	a4,132(a5)
200044d0:	fd842783          	lw	a5,-40(s0)
200044d4:	08e7a223          	sw	a4,132(a5)
200044d8:	fdc42783          	lw	a5,-36(s0)
200044dc:	0887a703          	lw	a4,136(a5)
200044e0:	fd842783          	lw	a5,-40(s0)
200044e4:	08e7a423          	sw	a4,136(a5)
200044e8:	fdc42783          	lw	a5,-36(s0)
200044ec:	00c7a703          	lw	a4,12(a5)
200044f0:	fd842783          	lw	a5,-40(s0)
200044f4:	00e7a623          	sw	a4,12(a5)
200044f8:	fdc42783          	lw	a5,-36(s0)
200044fc:	0087a703          	lw	a4,8(a5)
20004500:	fd842783          	lw	a5,-40(s0)
20004504:	00e7a423          	sw	a4,8(a5)
20004508:	00000013          	nop
2000450c:	02c12403          	lw	s0,44(sp)
20004510:	03010113          	addi	sp,sp,48
20004514:	00008067          	ret

20004518 <term_proc_and_child>:
20004518:	fd010113          	addi	sp,sp,-48
2000451c:	02112623          	sw	ra,44(sp)
20004520:	02812423          	sw	s0,40(sp)
20004524:	03010413          	addi	s0,sp,48
20004528:	fca42e23          	sw	a0,-36(s0)
2000452c:	0400006f          	j	2000456c <term_proc_and_child+0x54>
20004530:	fdc42783          	lw	a5,-36(s0)
20004534:	fef42623          	sw	a5,-20(s0)
20004538:	01c0006f          	j	20004554 <term_proc_and_child+0x3c>
2000453c:	fec42783          	lw	a5,-20(s0)
20004540:	00c7a783          	lw	a5,12(a5)
20004544:	fef42423          	sw	a5,-24(s0)
20004548:	fe842783          	lw	a5,-24(s0)
2000454c:	fec78793          	addi	a5,a5,-20
20004550:	fef42623          	sw	a5,-20(s0)
20004554:	fec42503          	lw	a0,-20(s0)
20004558:	dfdfe0ef          	jal	ra,20003354 <emptyChild>
2000455c:	00050793          	mv	a5,a0
20004560:	fc078ee3          	beqz	a5,2000453c <term_proc_and_child+0x24>
20004564:	fec42503          	lw	a0,-20(s0)
20004568:	034000ef          	jal	ra,2000459c <term_single_proc>
2000456c:	fdc42783          	lw	a5,-36(s0)
20004570:	0b87a783          	lw	a5,184(a5)
20004574:	00078513          	mv	a0,a5
20004578:	f69fe0ef          	jal	ra,200034e0 <isPcbFree>
2000457c:	00050793          	mv	a5,a0
20004580:	fa0788e3          	beqz	a5,20004530 <term_proc_and_child+0x18>
20004584:	00000013          	nop
20004588:	00000013          	nop
2000458c:	02c12083          	lw	ra,44(sp)
20004590:	02812403          	lw	s0,40(sp)
20004594:	03010113          	addi	sp,sp,48
20004598:	00008067          	ret

2000459c <term_single_proc>:
2000459c:	fe010113          	addi	sp,sp,-32
200045a0:	00112e23          	sw	ra,28(sp)
200045a4:	00812c23          	sw	s0,24(sp)
200045a8:	02010413          	addi	s0,sp,32
200045ac:	fea42623          	sw	a0,-20(s0)
200045b0:	200067b7          	lui	a5,0x20006
200045b4:	0747a783          	lw	a5,116(a5) # 20006074 <activeProc>
200045b8:	fff78713          	addi	a4,a5,-1
200045bc:	200067b7          	lui	a5,0x20006
200045c0:	06e7aa23          	sw	a4,116(a5) # 20006074 <activeProc>
200045c4:	fec42783          	lw	a5,-20(s0)
200045c8:	0ac7a783          	lw	a5,172(a5)
200045cc:	02078063          	beqz	a5,200045ec <term_single_proc+0x50>
200045d0:	200067b7          	lui	a5,0x20006
200045d4:	07c7a783          	lw	a5,124(a5) # 2000607c <blockedProc>
200045d8:	fff78713          	addi	a4,a5,-1
200045dc:	200067b7          	lui	a5,0x20006
200045e0:	06e7ae23          	sw	a4,124(a5) # 2000607c <blockedProc>
200045e4:	fec42503          	lw	a0,-20(s0)
200045e8:	c44ff0ef          	jal	ra,20003a2c <outBlocked>
200045ec:	200067b7          	lui	a5,0x20006
200045f0:	0907a783          	lw	a5,144(a5) # 20006090 <currentActiveProc>
200045f4:	fec42703          	lw	a4,-20(s0)
200045f8:	00f71663          	bne	a4,a5,20004604 <term_single_proc+0x68>
200045fc:	200067b7          	lui	a5,0x20006
20004600:	0807a823          	sw	zero,144(a5) # 20006090 <currentActiveProc>
20004604:	fec42503          	lw	a0,-20(s0)
20004608:	e69fe0ef          	jal	ra,20003470 <outChild>
2000460c:	fec42503          	lw	a0,-20(s0)
20004610:	a69fe0ef          	jal	ra,20003078 <freePcb>
20004614:	00000013          	nop
20004618:	01c12083          	lw	ra,28(sp)
2000461c:	01812403          	lw	s0,24(sp)
20004620:	02010113          	addi	sp,sp,32
20004624:	00008067          	ret

20004628 <find_pcb>:
20004628:	fd010113          	addi	sp,sp,-48
2000462c:	02112623          	sw	ra,44(sp)
20004630:	02812423          	sw	s0,40(sp)
20004634:	03010413          	addi	s0,sp,48
20004638:	fca42e23          	sw	a0,-36(s0)
2000463c:	200067b7          	lui	a5,0x20006
20004640:	08878793          	addi	a5,a5,136 # 20006088 <queueHighProc>
20004644:	0007a783          	lw	a5,0(a5)
20004648:	fef42623          	sw	a5,-20(s0)
2000464c:	0380006f          	j	20004684 <find_pcb+0x5c>
20004650:	fec42783          	lw	a5,-20(s0)
20004654:	fef42023          	sw	a5,-32(s0)
20004658:	fe042783          	lw	a5,-32(s0)
2000465c:	fef42423          	sw	a5,-24(s0)
20004660:	fe842783          	lw	a5,-24(s0)
20004664:	0b87a783          	lw	a5,184(a5)
20004668:	fdc42703          	lw	a4,-36(s0)
2000466c:	00f71663          	bne	a4,a5,20004678 <find_pcb+0x50>
20004670:	fe842783          	lw	a5,-24(s0)
20004674:	0880006f          	j	200046fc <find_pcb+0xd4>
20004678:	fec42783          	lw	a5,-20(s0)
2000467c:	0007a783          	lw	a5,0(a5)
20004680:	fef42623          	sw	a5,-20(s0)
20004684:	fec42703          	lw	a4,-20(s0)
20004688:	200067b7          	lui	a5,0x20006
2000468c:	08878793          	addi	a5,a5,136 # 20006088 <queueHighProc>
20004690:	fcf710e3          	bne	a4,a5,20004650 <find_pcb+0x28>
20004694:	200067b7          	lui	a5,0x20006
20004698:	08078793          	addi	a5,a5,128 # 20006080 <queueLowProc>
2000469c:	0007a783          	lw	a5,0(a5)
200046a0:	fef42623          	sw	a5,-20(s0)
200046a4:	0380006f          	j	200046dc <find_pcb+0xb4>
200046a8:	fec42783          	lw	a5,-20(s0)
200046ac:	fef42223          	sw	a5,-28(s0)
200046b0:	fe442783          	lw	a5,-28(s0)
200046b4:	fef42423          	sw	a5,-24(s0)
200046b8:	fe842783          	lw	a5,-24(s0)
200046bc:	0b87a783          	lw	a5,184(a5)
200046c0:	fdc42703          	lw	a4,-36(s0)
200046c4:	00f71663          	bne	a4,a5,200046d0 <find_pcb+0xa8>
200046c8:	fe842783          	lw	a5,-24(s0)
200046cc:	0300006f          	j	200046fc <find_pcb+0xd4>
200046d0:	fec42783          	lw	a5,-20(s0)
200046d4:	0007a783          	lw	a5,0(a5)
200046d8:	fef42623          	sw	a5,-20(s0)
200046dc:	fec42703          	lw	a4,-20(s0)
200046e0:	200067b7          	lui	a5,0x20006
200046e4:	08078793          	addi	a5,a5,128 # 20006080 <queueLowProc>
200046e8:	fcf710e3          	bne	a4,a5,200046a8 <find_pcb+0x80>
200046ec:	fdc42503          	lw	a0,-36(s0)
200046f0:	870ff0ef          	jal	ra,20003760 <isPcbBlocked>
200046f4:	fea42423          	sw	a0,-24(s0)
200046f8:	fe842783          	lw	a5,-24(s0)
200046fc:	00078513          	mv	a0,a5
20004700:	02c12083          	lw	ra,44(sp)
20004704:	02812403          	lw	s0,40(sp)
20004708:	03010113          	addi	sp,sp,48
2000470c:	00008067          	ret

20004710 <block_curr_proc>:
20004710:	fe010113          	addi	sp,sp,-32
20004714:	00112e23          	sw	ra,28(sp)
20004718:	00812c23          	sw	s0,24(sp)
2000471c:	02010413          	addi	s0,sp,32
20004720:	fea42623          	sw	a0,-20(s0)
20004724:	feb42423          	sw	a1,-24(s0)
20004728:	1cd000ef          	jal	ra,200050f4 <update_curr_proc_time>
2000472c:	200067b7          	lui	a5,0x20006
20004730:	0907a783          	lw	a5,144(a5) # 20006090 <currentActiveProc>
20004734:	01c78793          	addi	a5,a5,28
20004738:	00078593          	mv	a1,a5
2000473c:	fec42503          	lw	a0,-20(s0)
20004740:	d05ff0ef          	jal	ra,20004444 <copy_state>
20004744:	200067b7          	lui	a5,0x20006
20004748:	0907a783          	lw	a5,144(a5) # 20006090 <currentActiveProc>
2000474c:	00078593          	mv	a1,a5
20004750:	fe842503          	lw	a0,-24(s0)
20004754:	93cff0ef          	jal	ra,20003890 <insertBlocked>
20004758:	200067b7          	lui	a5,0x20006
2000475c:	07c7a783          	lw	a5,124(a5) # 2000607c <blockedProc>
20004760:	00178713          	addi	a4,a5,1
20004764:	200067b7          	lui	a5,0x20006
20004768:	06e7ae23          	sw	a4,124(a5) # 2000607c <blockedProc>
2000476c:	7cc000ef          	jal	ra,20004f38 <scheduler>
20004770:	00000013          	nop
20004774:	01c12083          	lw	ra,28(sp)
20004778:	01812403          	lw	s0,24(sp)
2000477c:	02010113          	addi	sp,sp,32
20004780:	00008067          	ret

20004784 <free_process>:
20004784:	fd010113          	addi	sp,sp,-48
20004788:	02112623          	sw	ra,44(sp)
2000478c:	02812423          	sw	s0,40(sp)
20004790:	03010413          	addi	s0,sp,48
20004794:	fca42e23          	sw	a0,-36(s0)
20004798:	fdc42503          	lw	a0,-36(s0)
2000479c:	a04ff0ef          	jal	ra,200039a0 <removeBlocked>
200047a0:	fea42623          	sw	a0,-20(s0)
200047a4:	200067b7          	lui	a5,0x20006
200047a8:	07c7a783          	lw	a5,124(a5) # 2000607c <blockedProc>
200047ac:	fff78713          	addi	a4,a5,-1
200047b0:	200067b7          	lui	a5,0x20006
200047b4:	06e7ae23          	sw	a4,124(a5) # 2000607c <blockedProc>
200047b8:	fec42783          	lw	a5,-20(s0)
200047bc:	0b47a783          	lw	a5,180(a5)
200047c0:	fec42583          	lw	a1,-20(s0)
200047c4:	00078513          	mv	a0,a5
200047c8:	51d000ef          	jal	ra,200054e4 <insert_ready_queue>
200047cc:	fec42783          	lw	a5,-20(s0)
200047d0:	00078513          	mv	a0,a5
200047d4:	02c12083          	lw	ra,44(sp)
200047d8:	02812403          	lw	s0,40(sp)
200047dc:	03010113          	addi	sp,sp,48
200047e0:	00008067          	ret

200047e4 <term_proc>:
200047e4:	fd010113          	addi	sp,sp,-48
200047e8:	02112623          	sw	ra,44(sp)
200047ec:	02812423          	sw	s0,40(sp)
200047f0:	03010413          	addi	s0,sp,48
200047f4:	fca42e23          	sw	a0,-36(s0)
200047f8:	fdc42783          	lw	a5,-36(s0)
200047fc:	00079c63          	bnez	a5,20004814 <term_proc+0x30>
20004800:	200067b7          	lui	a5,0x20006
20004804:	0907a783          	lw	a5,144(a5) # 20006090 <currentActiveProc>
20004808:	00078513          	mv	a0,a5
2000480c:	d0dff0ef          	jal	ra,20004518 <term_proc_and_child>
20004810:	0180006f          	j	20004828 <term_proc+0x44>
20004814:	fdc42503          	lw	a0,-36(s0)
20004818:	e11ff0ef          	jal	ra,20004628 <find_pcb>
2000481c:	fea42623          	sw	a0,-20(s0)
20004820:	fec42503          	lw	a0,-20(s0)
20004824:	cf5ff0ef          	jal	ra,20004518 <term_proc_and_child>
20004828:	00000013          	nop
2000482c:	02c12083          	lw	ra,44(sp)
20004830:	02812403          	lw	s0,40(sp)
20004834:	03010113          	addi	sp,sp,48
20004838:	00008067          	ret

2000483c <lenQ>:
2000483c:	fd010113          	addi	sp,sp,-48
20004840:	02812623          	sw	s0,44(sp)
20004844:	03010413          	addi	s0,sp,48
20004848:	fca42e23          	sw	a0,-36(s0)
2000484c:	fe042623          	sw	zero,-20(s0)
20004850:	fdc42783          	lw	a5,-36(s0)
20004854:	0007a783          	lw	a5,0(a5)
20004858:	fef42423          	sw	a5,-24(s0)
2000485c:	01c0006f          	j	20004878 <lenQ+0x3c>
20004860:	fec42783          	lw	a5,-20(s0)
20004864:	00178793          	addi	a5,a5,1
20004868:	fef42623          	sw	a5,-20(s0)
2000486c:	fe842783          	lw	a5,-24(s0)
20004870:	0007a783          	lw	a5,0(a5)
20004874:	fef42423          	sw	a5,-24(s0)
20004878:	fe842703          	lw	a4,-24(s0)
2000487c:	fdc42783          	lw	a5,-36(s0)
20004880:	fef710e3          	bne	a4,a5,20004860 <lenQ+0x24>
20004884:	fec42783          	lw	a5,-20(s0)
20004888:	00078513          	mv	a0,a5
2000488c:	02c12403          	lw	s0,44(sp)
20004890:	03010113          	addi	sp,sp,48
20004894:	00008067          	ret

20004898 <create_process>:
20004898:	fd010113          	addi	sp,sp,-48
2000489c:	02112623          	sw	ra,44(sp)
200048a0:	02812423          	sw	s0,40(sp)
200048a4:	03010413          	addi	s0,sp,48
200048a8:	fca42e23          	sw	a0,-36(s0)
200048ac:	809fe0ef          	jal	ra,200030b4 <allocPcb>
200048b0:	fea42623          	sw	a0,-20(s0)
200048b4:	fdc42783          	lw	a5,-36(s0)
200048b8:	0207a783          	lw	a5,32(a5)
200048bc:	fef42423          	sw	a5,-24(s0)
200048c0:	fdc42783          	lw	a5,-36(s0)
200048c4:	0247a783          	lw	a5,36(a5)
200048c8:	fef42223          	sw	a5,-28(s0)
200048cc:	fdc42783          	lw	a5,-36(s0)
200048d0:	0287a783          	lw	a5,40(a5)
200048d4:	fef42023          	sw	a5,-32(s0)
200048d8:	fec42783          	lw	a5,-20(s0)
200048dc:	00079a63          	bnez	a5,200048f0 <create_process+0x58>
200048e0:	fdc42783          	lw	a5,-36(s0)
200048e4:	fff00713          	li	a4,-1
200048e8:	00e7aa23          	sw	a4,20(a5)
200048ec:	07c0006f          	j	20004968 <create_process+0xd0>
200048f0:	200067b7          	lui	a5,0x20006
200048f4:	0907a783          	lw	a5,144(a5) # 20006090 <currentActiveProc>
200048f8:	fec42583          	lw	a1,-20(s0)
200048fc:	00078513          	mv	a0,a5
20004900:	a91fe0ef          	jal	ra,20003390 <insertChild>
20004904:	fec42783          	lw	a5,-20(s0)
20004908:	01c78793          	addi	a5,a5,28
2000490c:	00078593          	mv	a1,a5
20004910:	fe842503          	lw	a0,-24(s0)
20004914:	b31ff0ef          	jal	ra,20004444 <copy_state>
20004918:	200067b7          	lui	a5,0x20006
2000491c:	0747a783          	lw	a5,116(a5) # 20006074 <activeProc>
20004920:	00178713          	addi	a4,a5,1
20004924:	200067b7          	lui	a5,0x20006
20004928:	06e7aa23          	sw	a4,116(a5) # 20006074 <activeProc>
2000492c:	fec42583          	lw	a1,-20(s0)
20004930:	fe442503          	lw	a0,-28(s0)
20004934:	3b1000ef          	jal	ra,200054e4 <insert_ready_queue>
20004938:	fec42783          	lw	a5,-20(s0)
2000493c:	fe042703          	lw	a4,-32(s0)
20004940:	0ae7a823          	sw	a4,176(a5)
20004944:	fe042783          	lw	a5,-32(s0)
20004948:	00079663          	bnez	a5,20004954 <create_process+0xbc>
2000494c:	fec42783          	lw	a5,-20(s0)
20004950:	0a07a823          	sw	zero,176(a5)
20004954:	fec42783          	lw	a5,-20(s0)
20004958:	0b87a783          	lw	a5,184(a5)
2000495c:	00078713          	mv	a4,a5
20004960:	fdc42783          	lw	a5,-36(s0)
20004964:	00e7aa23          	sw	a4,20(a5)
20004968:	fdc42503          	lw	a0,-36(s0)
2000496c:	6f4000ef          	jal	ra,20005060 <load_or_scheduler>
20004970:	00000013          	nop
20004974:	02c12083          	lw	ra,44(sp)
20004978:	02812403          	lw	s0,40(sp)
2000497c:	03010113          	addi	sp,sp,48
20004980:	00008067          	ret

20004984 <terminate_process>:
20004984:	fd010113          	addi	sp,sp,-48
20004988:	02112623          	sw	ra,44(sp)
2000498c:	02812423          	sw	s0,40(sp)
20004990:	03010413          	addi	s0,sp,48
20004994:	fca42e23          	sw	a0,-36(s0)
20004998:	fdc42783          	lw	a5,-36(s0)
2000499c:	0207a783          	lw	a5,32(a5)
200049a0:	fef42623          	sw	a5,-20(s0)
200049a4:	fec42503          	lw	a0,-20(s0)
200049a8:	e3dff0ef          	jal	ra,200047e4 <term_proc>
200049ac:	fdc42503          	lw	a0,-36(s0)
200049b0:	6b0000ef          	jal	ra,20005060 <load_or_scheduler>
200049b4:	00000013          	nop
200049b8:	02c12083          	lw	ra,44(sp)
200049bc:	02812403          	lw	s0,40(sp)
200049c0:	03010113          	addi	sp,sp,48
200049c4:	00008067          	ret

200049c8 <passeren>:
200049c8:	fd010113          	addi	sp,sp,-48
200049cc:	02112623          	sw	ra,44(sp)
200049d0:	02812423          	sw	s0,40(sp)
200049d4:	03010413          	addi	s0,sp,48
200049d8:	fca42e23          	sw	a0,-36(s0)
200049dc:	fdc42783          	lw	a5,-36(s0)
200049e0:	0207a783          	lw	a5,32(a5)
200049e4:	fef42623          	sw	a5,-20(s0)
200049e8:	fdc42583          	lw	a1,-36(s0)
200049ec:	fec42503          	lw	a0,-20(s0)
200049f0:	020000ef          	jal	ra,20004a10 <P>
200049f4:	fdc42503          	lw	a0,-36(s0)
200049f8:	668000ef          	jal	ra,20005060 <load_or_scheduler>
200049fc:	00000013          	nop
20004a00:	02c12083          	lw	ra,44(sp)
20004a04:	02812403          	lw	s0,40(sp)
20004a08:	03010113          	addi	sp,sp,48
20004a0c:	00008067          	ret

20004a10 <P>:
20004a10:	fd010113          	addi	sp,sp,-48
20004a14:	02112623          	sw	ra,44(sp)
20004a18:	02812423          	sw	s0,40(sp)
20004a1c:	03010413          	addi	s0,sp,48
20004a20:	fca42e23          	sw	a0,-36(s0)
20004a24:	fcb42c23          	sw	a1,-40(s0)
20004a28:	fdc42503          	lw	a0,-36(s0)
20004a2c:	8c0ff0ef          	jal	ra,20003aec <headBlocked>
20004a30:	fea42623          	sw	a0,-20(s0)
20004a34:	fdc42783          	lw	a5,-36(s0)
20004a38:	0007a783          	lw	a5,0(a5)
20004a3c:	00079a63          	bnez	a5,20004a50 <P+0x40>
20004a40:	fdc42583          	lw	a1,-36(s0)
20004a44:	fd842503          	lw	a0,-40(s0)
20004a48:	cc9ff0ef          	jal	ra,20004710 <block_curr_proc>
20004a4c:	0300006f          	j	20004a7c <P+0x6c>
20004a50:	fec42783          	lw	a5,-20(s0)
20004a54:	00078a63          	beqz	a5,20004a68 <P+0x58>
20004a58:	fdc42503          	lw	a0,-36(s0)
20004a5c:	d29ff0ef          	jal	ra,20004784 <free_process>
20004a60:	00050793          	mv	a5,a0
20004a64:	01c0006f          	j	20004a80 <P+0x70>
20004a68:	fdc42783          	lw	a5,-36(s0)
20004a6c:	0007a783          	lw	a5,0(a5)
20004a70:	fff78713          	addi	a4,a5,-1
20004a74:	fdc42783          	lw	a5,-36(s0)
20004a78:	00e7a023          	sw	a4,0(a5)
20004a7c:	00000793          	li	a5,0
20004a80:	00078513          	mv	a0,a5
20004a84:	02c12083          	lw	ra,44(sp)
20004a88:	02812403          	lw	s0,40(sp)
20004a8c:	03010113          	addi	sp,sp,48
20004a90:	00008067          	ret

20004a94 <verhogen>:
20004a94:	fd010113          	addi	sp,sp,-48
20004a98:	02112623          	sw	ra,44(sp)
20004a9c:	02812423          	sw	s0,40(sp)
20004aa0:	03010413          	addi	s0,sp,48
20004aa4:	fca42e23          	sw	a0,-36(s0)
20004aa8:	fdc42783          	lw	a5,-36(s0)
20004aac:	0207a783          	lw	a5,32(a5)
20004ab0:	fef42623          	sw	a5,-20(s0)
20004ab4:	fdc42583          	lw	a1,-36(s0)
20004ab8:	fec42503          	lw	a0,-20(s0)
20004abc:	020000ef          	jal	ra,20004adc <V>
20004ac0:	fdc42503          	lw	a0,-36(s0)
20004ac4:	59c000ef          	jal	ra,20005060 <load_or_scheduler>
20004ac8:	00000013          	nop
20004acc:	02c12083          	lw	ra,44(sp)
20004ad0:	02812403          	lw	s0,40(sp)
20004ad4:	03010113          	addi	sp,sp,48
20004ad8:	00008067          	ret

20004adc <V>:
20004adc:	fd010113          	addi	sp,sp,-48
20004ae0:	02112623          	sw	ra,44(sp)
20004ae4:	02812423          	sw	s0,40(sp)
20004ae8:	03010413          	addi	s0,sp,48
20004aec:	fca42e23          	sw	a0,-36(s0)
20004af0:	fcb42c23          	sw	a1,-40(s0)
20004af4:	fdc42503          	lw	a0,-36(s0)
20004af8:	ff5fe0ef          	jal	ra,20003aec <headBlocked>
20004afc:	fea42623          	sw	a0,-20(s0)
20004b00:	fdc42783          	lw	a5,-36(s0)
20004b04:	0007a703          	lw	a4,0(a5)
20004b08:	00100793          	li	a5,1
20004b0c:	00f71a63          	bne	a4,a5,20004b20 <V+0x44>
20004b10:	fdc42583          	lw	a1,-36(s0)
20004b14:	fd842503          	lw	a0,-40(s0)
20004b18:	bf9ff0ef          	jal	ra,20004710 <block_curr_proc>
20004b1c:	0300006f          	j	20004b4c <V+0x70>
20004b20:	fec42783          	lw	a5,-20(s0)
20004b24:	00078a63          	beqz	a5,20004b38 <V+0x5c>
20004b28:	fdc42503          	lw	a0,-36(s0)
20004b2c:	c59ff0ef          	jal	ra,20004784 <free_process>
20004b30:	00050793          	mv	a5,a0
20004b34:	01c0006f          	j	20004b50 <V+0x74>
20004b38:	fdc42783          	lw	a5,-36(s0)
20004b3c:	0007a783          	lw	a5,0(a5)
20004b40:	00178713          	addi	a4,a5,1
20004b44:	fdc42783          	lw	a5,-36(s0)
20004b48:	00e7a023          	sw	a4,0(a5)
20004b4c:	00000793          	li	a5,0
20004b50:	00078513          	mv	a0,a5
20004b54:	02c12083          	lw	ra,44(sp)
20004b58:	02812403          	lw	s0,40(sp)
20004b5c:	03010113          	addi	sp,sp,48
20004b60:	00008067          	ret

20004b64 <do_IO_device>:
20004b64:	fc010113          	addi	sp,sp,-64
20004b68:	02112e23          	sw	ra,60(sp)
20004b6c:	02812c23          	sw	s0,56(sp)
20004b70:	04010413          	addi	s0,sp,64
20004b74:	fca42623          	sw	a0,-52(s0)
20004b78:	fcc42783          	lw	a5,-52(s0)
20004b7c:	0207a783          	lw	a5,32(a5)
20004b80:	fef42023          	sw	a5,-32(s0)
20004b84:	fcc42783          	lw	a5,-52(s0)
20004b88:	0247a783          	lw	a5,36(a5)
20004b8c:	fcf42e23          	sw	a5,-36(s0)
20004b90:	fe042623          	sw	zero,-20(s0)
20004b94:	100007b7          	lui	a5,0x10000
20004b98:	fcf42c23          	sw	a5,-40(s0)
20004b9c:	fe042423          	sw	zero,-24(s0)
20004ba0:	1640006f          	j	20004d04 <do_IO_device+0x1a0>
20004ba4:	fe842783          	lw	a5,-24(s0)
20004ba8:	02578793          	addi	a5,a5,37 # 10000025 <_ftext-0x10000fdb>
20004bac:	00479793          	slli	a5,a5,0x4
20004bb0:	fd842703          	lw	a4,-40(s0)
20004bb4:	00f707b3          	add	a5,a4,a5
20004bb8:	01078793          	addi	a5,a5,16
20004bbc:	fe042703          	lw	a4,-32(s0)
20004bc0:	02f71063          	bne	a4,a5,20004be0 <do_IO_device+0x7c>
20004bc4:	fe842783          	lw	a5,-24(s0)
20004bc8:	00279713          	slli	a4,a5,0x2
20004bcc:	200087b7          	lui	a5,0x20008
20004bd0:	d7c78793          	addi	a5,a5,-644 # 20007d7c <semTerminalDeviceWriting>
20004bd4:	00f707b3          	add	a5,a4,a5
20004bd8:	fef42623          	sw	a5,-20(s0)
20004bdc:	1340006f          	j	20004d10 <do_IO_device+0x1ac>
20004be0:	fe842783          	lw	a5,-24(s0)
20004be4:	02578793          	addi	a5,a5,37
20004be8:	00479793          	slli	a5,a5,0x4
20004bec:	fd842703          	lw	a4,-40(s0)
20004bf0:	00f707b3          	add	a5,a4,a5
20004bf4:	00878793          	addi	a5,a5,8
20004bf8:	fe042703          	lw	a4,-32(s0)
20004bfc:	02f71063          	bne	a4,a5,20004c1c <do_IO_device+0xb8>
20004c00:	fe842783          	lw	a5,-24(s0)
20004c04:	00279713          	slli	a4,a5,0x2
20004c08:	200087b7          	lui	a5,0x20008
20004c0c:	d5c78793          	addi	a5,a5,-676 # 20007d5c <semTerminalDeviceReading>
20004c10:	00f707b3          	add	a5,a4,a5
20004c14:	fef42623          	sw	a5,-20(s0)
20004c18:	0f80006f          	j	20004d10 <do_IO_device+0x1ac>
20004c1c:	fe042223          	sw	zero,-28(s0)
20004c20:	0cc0006f          	j	20004cec <do_IO_device+0x188>
20004c24:	fe442783          	lw	a5,-28(s0)
20004c28:	00379713          	slli	a4,a5,0x3
20004c2c:	fe842783          	lw	a5,-24(s0)
20004c30:	00f707b3          	add	a5,a4,a5
20004c34:	00578793          	addi	a5,a5,5
20004c38:	00479793          	slli	a5,a5,0x4
20004c3c:	fd842703          	lw	a4,-40(s0)
20004c40:	00f707b3          	add	a5,a4,a5
20004c44:	00878793          	addi	a5,a5,8
20004c48:	fe042703          	lw	a4,-32(s0)
20004c4c:	08f71a63          	bne	a4,a5,20004ce0 <do_IO_device+0x17c>
20004c50:	fe442783          	lw	a5,-28(s0)
20004c54:	02079063          	bnez	a5,20004c74 <do_IO_device+0x110>
20004c58:	fe842783          	lw	a5,-24(s0)
20004c5c:	00279713          	slli	a4,a5,0x2
20004c60:	200087b7          	lui	a5,0x20008
20004c64:	cdc78793          	addi	a5,a5,-804 # 20007cdc <semDiskDevice>
20004c68:	00f707b3          	add	a5,a4,a5
20004c6c:	fef42623          	sw	a5,-20(s0)
20004c70:	0880006f          	j	20004cf8 <do_IO_device+0x194>
20004c74:	fe442703          	lw	a4,-28(s0)
20004c78:	00100793          	li	a5,1
20004c7c:	02f71063          	bne	a4,a5,20004c9c <do_IO_device+0x138>
20004c80:	fe842783          	lw	a5,-24(s0)
20004c84:	00279713          	slli	a4,a5,0x2
20004c88:	200087b7          	lui	a5,0x20008
20004c8c:	cfc78793          	addi	a5,a5,-772 # 20007cfc <semFlashDevice>
20004c90:	00f707b3          	add	a5,a4,a5
20004c94:	fef42623          	sw	a5,-20(s0)
20004c98:	0600006f          	j	20004cf8 <do_IO_device+0x194>
20004c9c:	fe442703          	lw	a4,-28(s0)
20004ca0:	00200793          	li	a5,2
20004ca4:	02f71063          	bne	a4,a5,20004cc4 <do_IO_device+0x160>
20004ca8:	fe842783          	lw	a5,-24(s0)
20004cac:	00279713          	slli	a4,a5,0x2
20004cb0:	200087b7          	lui	a5,0x20008
20004cb4:	d1c78793          	addi	a5,a5,-740 # 20007d1c <semNetworkDevice>
20004cb8:	00f707b3          	add	a5,a4,a5
20004cbc:	fef42623          	sw	a5,-20(s0)
20004cc0:	0380006f          	j	20004cf8 <do_IO_device+0x194>
20004cc4:	fe842783          	lw	a5,-24(s0)
20004cc8:	00279713          	slli	a4,a5,0x2
20004ccc:	200087b7          	lui	a5,0x20008
20004cd0:	d3c78793          	addi	a5,a5,-708 # 20007d3c <semPrinterDevice>
20004cd4:	00f707b3          	add	a5,a4,a5
20004cd8:	fef42623          	sw	a5,-20(s0)
20004cdc:	01c0006f          	j	20004cf8 <do_IO_device+0x194>
20004ce0:	fe442783          	lw	a5,-28(s0)
20004ce4:	00178793          	addi	a5,a5,1
20004ce8:	fef42223          	sw	a5,-28(s0)
20004cec:	fe442703          	lw	a4,-28(s0)
20004cf0:	00300793          	li	a5,3
20004cf4:	f2e7d8e3          	bge	a5,a4,20004c24 <do_IO_device+0xc0>
20004cf8:	fe842783          	lw	a5,-24(s0)
20004cfc:	00178793          	addi	a5,a5,1
20004d00:	fef42423          	sw	a5,-24(s0)
20004d04:	fe842703          	lw	a4,-24(s0)
20004d08:	00700793          	li	a5,7
20004d0c:	e8e7dce3          	bge	a5,a4,20004ba4 <do_IO_device+0x40>
20004d10:	fe042783          	lw	a5,-32(s0)
20004d14:	fdc42703          	lw	a4,-36(s0)
20004d18:	00e7a023          	sw	a4,0(a5)
20004d1c:	fcc42583          	lw	a1,-52(s0)
20004d20:	fec42503          	lw	a0,-20(s0)
20004d24:	cedff0ef          	jal	ra,20004a10 <P>
20004d28:	fcc42503          	lw	a0,-52(s0)
20004d2c:	334000ef          	jal	ra,20005060 <load_or_scheduler>
20004d30:	00000013          	nop
20004d34:	03c12083          	lw	ra,60(sp)
20004d38:	03812403          	lw	s0,56(sp)
20004d3c:	04010113          	addi	sp,sp,64
20004d40:	00008067          	ret

20004d44 <get_cpu_time>:
20004d44:	fe010113          	addi	sp,sp,-32
20004d48:	00112e23          	sw	ra,28(sp)
20004d4c:	00812c23          	sw	s0,24(sp)
20004d50:	02010413          	addi	s0,sp,32
20004d54:	fea42623          	sw	a0,-20(s0)
20004d58:	39c000ef          	jal	ra,200050f4 <update_curr_proc_time>
20004d5c:	200067b7          	lui	a5,0x20006
20004d60:	0907a783          	lw	a5,144(a5) # 20006090 <currentActiveProc>
20004d64:	0a87a783          	lw	a5,168(a5)
20004d68:	00078713          	mv	a4,a5
20004d6c:	fec42783          	lw	a5,-20(s0)
20004d70:	00e7aa23          	sw	a4,20(a5)
20004d74:	fec42503          	lw	a0,-20(s0)
20004d78:	2e8000ef          	jal	ra,20005060 <load_or_scheduler>
20004d7c:	00000013          	nop
20004d80:	01c12083          	lw	ra,28(sp)
20004d84:	01812403          	lw	s0,24(sp)
20004d88:	02010113          	addi	sp,sp,32
20004d8c:	00008067          	ret

20004d90 <wait_for_clock>:
20004d90:	fe010113          	addi	sp,sp,-32
20004d94:	00112e23          	sw	ra,28(sp)
20004d98:	00812c23          	sw	s0,24(sp)
20004d9c:	02010413          	addi	s0,sp,32
20004da0:	fea42623          	sw	a0,-20(s0)
20004da4:	fec42583          	lw	a1,-20(s0)
20004da8:	200067b7          	lui	a5,0x20006
20004dac:	09c78513          	addi	a0,a5,156 # 2000609c <semIntervalTimer>
20004db0:	c61ff0ef          	jal	ra,20004a10 <P>
20004db4:	fec42503          	lw	a0,-20(s0)
20004db8:	2a8000ef          	jal	ra,20005060 <load_or_scheduler>
20004dbc:	00000013          	nop
20004dc0:	01c12083          	lw	ra,28(sp)
20004dc4:	01812403          	lw	s0,24(sp)
20004dc8:	02010113          	addi	sp,sp,32
20004dcc:	00008067          	ret

20004dd0 <get_support_data>:
20004dd0:	fe010113          	addi	sp,sp,-32
20004dd4:	00112e23          	sw	ra,28(sp)
20004dd8:	00812c23          	sw	s0,24(sp)
20004ddc:	02010413          	addi	s0,sp,32
20004de0:	fea42623          	sw	a0,-20(s0)
20004de4:	200067b7          	lui	a5,0x20006
20004de8:	0907a783          	lw	a5,144(a5) # 20006090 <currentActiveProc>
20004dec:	0b07a783          	lw	a5,176(a5)
20004df0:	00078c63          	beqz	a5,20004e08 <get_support_data+0x38>
20004df4:	200067b7          	lui	a5,0x20006
20004df8:	0907a783          	lw	a5,144(a5) # 20006090 <currentActiveProc>
20004dfc:	0b07a783          	lw	a5,176(a5)
20004e00:	00078713          	mv	a4,a5
20004e04:	0080006f          	j	20004e0c <get_support_data+0x3c>
20004e08:	00000713          	li	a4,0
20004e0c:	fec42783          	lw	a5,-20(s0)
20004e10:	00e7aa23          	sw	a4,20(a5)
20004e14:	fec42503          	lw	a0,-20(s0)
20004e18:	248000ef          	jal	ra,20005060 <load_or_scheduler>
20004e1c:	00000013          	nop
20004e20:	01c12083          	lw	ra,28(sp)
20004e24:	01812403          	lw	s0,24(sp)
20004e28:	02010113          	addi	sp,sp,32
20004e2c:	00008067          	ret

20004e30 <get_ID_process>:
20004e30:	fd010113          	addi	sp,sp,-48
20004e34:	02112623          	sw	ra,44(sp)
20004e38:	02812423          	sw	s0,40(sp)
20004e3c:	03010413          	addi	s0,sp,48
20004e40:	fca42e23          	sw	a0,-36(s0)
20004e44:	fdc42783          	lw	a5,-36(s0)
20004e48:	0207a783          	lw	a5,32(a5)
20004e4c:	fef42623          	sw	a5,-20(s0)
20004e50:	fec42783          	lw	a5,-20(s0)
20004e54:	02079063          	bnez	a5,20004e74 <get_ID_process+0x44>
20004e58:	200067b7          	lui	a5,0x20006
20004e5c:	0907a783          	lw	a5,144(a5) # 20006090 <currentActiveProc>
20004e60:	0b87a783          	lw	a5,184(a5)
20004e64:	00078713          	mv	a4,a5
20004e68:	fdc42783          	lw	a5,-36(s0)
20004e6c:	00e7aa23          	sw	a4,20(a5)
20004e70:	0200006f          	j	20004e90 <get_ID_process+0x60>
20004e74:	200067b7          	lui	a5,0x20006
20004e78:	0907a783          	lw	a5,144(a5) # 20006090 <currentActiveProc>
20004e7c:	0087a783          	lw	a5,8(a5)
20004e80:	0b87a783          	lw	a5,184(a5)
20004e84:	00078713          	mv	a4,a5
20004e88:	fdc42783          	lw	a5,-36(s0)
20004e8c:	00e7aa23          	sw	a4,20(a5)
20004e90:	fdc42503          	lw	a0,-36(s0)
20004e94:	1cc000ef          	jal	ra,20005060 <load_or_scheduler>
20004e98:	00000013          	nop
20004e9c:	02c12083          	lw	ra,44(sp)
20004ea0:	02812403          	lw	s0,40(sp)
20004ea4:	03010113          	addi	sp,sp,48
20004ea8:	00008067          	ret

20004eac <yield>:
20004eac:	fe010113          	addi	sp,sp,-32
20004eb0:	00112e23          	sw	ra,28(sp)
20004eb4:	00812c23          	sw	s0,24(sp)
20004eb8:	02010413          	addi	s0,sp,32
20004ebc:	fea42623          	sw	a0,-20(s0)
20004ec0:	200067b7          	lui	a5,0x20006
20004ec4:	0907a783          	lw	a5,144(a5) # 20006090 <currentActiveProc>
20004ec8:	01c78793          	addi	a5,a5,28
20004ecc:	00078593          	mv	a1,a5
20004ed0:	fec42503          	lw	a0,-20(s0)
20004ed4:	d70ff0ef          	jal	ra,20004444 <copy_state>
20004ed8:	200067b7          	lui	a5,0x20006
20004edc:	0907a783          	lw	a5,144(a5) # 20006090 <currentActiveProc>
20004ee0:	0b47a703          	lw	a4,180(a5)
20004ee4:	00100793          	li	a5,1
20004ee8:	00f71c63          	bne	a4,a5,20004f00 <yield+0x54>
20004eec:	200067b7          	lui	a5,0x20006
20004ef0:	0907a703          	lw	a4,144(a5) # 20006090 <currentActiveProc>
20004ef4:	200067b7          	lui	a5,0x20006
20004ef8:	08e7ac23          	sw	a4,152(a5) # 20006098 <yieldHighProc>
20004efc:	0240006f          	j	20004f20 <yield+0x74>
20004f00:	200067b7          	lui	a5,0x20006
20004f04:	0907a783          	lw	a5,144(a5) # 20006090 <currentActiveProc>
20004f08:	0b47a703          	lw	a4,180(a5)
20004f0c:	200067b7          	lui	a5,0x20006
20004f10:	0907a783          	lw	a5,144(a5) # 20006090 <currentActiveProc>
20004f14:	00078593          	mv	a1,a5
20004f18:	00070513          	mv	a0,a4
20004f1c:	5c8000ef          	jal	ra,200054e4 <insert_ready_queue>
20004f20:	018000ef          	jal	ra,20004f38 <scheduler>
20004f24:	00000013          	nop
20004f28:	01c12083          	lw	ra,28(sp)
20004f2c:	01812403          	lw	s0,24(sp)
20004f30:	02010113          	addi	sp,sp,32
20004f34:	00008067          	ret

20004f38 <scheduler>:
20004f38:	fe010113          	addi	sp,sp,-32
20004f3c:	00112e23          	sw	ra,28(sp)
20004f40:	00812c23          	sw	s0,24(sp)
20004f44:	02010413          	addi	s0,sp,32
20004f48:	200067b7          	lui	a5,0x20006
20004f4c:	0907a783          	lw	a5,144(a5) # 20006090 <currentActiveProc>
20004f50:	00078463          	beqz	a5,20004f58 <scheduler+0x20>
20004f54:	1a0000ef          	jal	ra,200050f4 <update_curr_proc_time>
20004f58:	200067b7          	lui	a5,0x20006
20004f5c:	08878513          	addi	a0,a5,136 # 20006088 <queueHighProc>
20004f60:	b08fe0ef          	jal	ra,20003268 <removeProcQ>
20004f64:	fea42623          	sw	a0,-20(s0)
20004f68:	fec42783          	lw	a5,-20(s0)
20004f6c:	02078463          	beqz	a5,20004f94 <scheduler+0x5c>
20004f70:	098000ef          	jal	ra,20005008 <freeYieldHP>
20004f74:	200067b7          	lui	a5,0x20006
20004f78:	fec42703          	lw	a4,-20(s0)
20004f7c:	08e7a823          	sw	a4,144(a5) # 20006090 <currentActiveProc>
20004f80:	fec42783          	lw	a5,-20(s0)
20004f84:	01c78793          	addi	a5,a5,28
20004f88:	00078513          	mv	a0,a5
20004f8c:	114000ef          	jal	ra,200050a0 <load_state>
20004f90:	0640006f          	j	20004ff4 <scheduler+0xbc>
20004f94:	200067b7          	lui	a5,0x20006
20004f98:	08078513          	addi	a0,a5,128 # 20006080 <queueLowProc>
20004f9c:	accfe0ef          	jal	ra,20003268 <removeProcQ>
20004fa0:	fea42623          	sw	a0,-20(s0)
20004fa4:	fec42783          	lw	a5,-20(s0)
20004fa8:	04078463          	beqz	a5,20004ff0 <scheduler+0xb8>
20004fac:	05c000ef          	jal	ra,20005008 <freeYieldHP>
20004fb0:	200067b7          	lui	a5,0x20006
20004fb4:	fec42703          	lw	a4,-20(s0)
20004fb8:	08e7a823          	sw	a4,144(a5) # 20006090 <currentActiveProc>
20004fbc:	100007b7          	lui	a5,0x10000
20004fc0:	02478793          	addi	a5,a5,36 # 10000024 <_ftext-0x10000fdc>
20004fc4:	0007a703          	lw	a4,0(a5)
20004fc8:	000017b7          	lui	a5,0x1
20004fcc:	38878793          	addi	a5,a5,904 # 1388 <_ftext-0x1ffffc78>
20004fd0:	02f707b3          	mul	a5,a4,a5
20004fd4:	00078513          	mv	a0,a5
20004fd8:	2c8000ef          	jal	ra,200052a0 <setTIMER>
20004fdc:	fec42783          	lw	a5,-20(s0)
20004fe0:	01c78793          	addi	a5,a5,28
20004fe4:	00078513          	mv	a0,a5
20004fe8:	0b8000ef          	jal	ra,200050a0 <load_state>
20004fec:	0080006f          	j	20004ff4 <scheduler+0xbc>
20004ff0:	16c000ef          	jal	ra,2000515c <scheduler_empty_queues>
20004ff4:	00000013          	nop
20004ff8:	01c12083          	lw	ra,28(sp)
20004ffc:	01812403          	lw	s0,24(sp)
20005000:	02010113          	addi	sp,sp,32
20005004:	00008067          	ret

20005008 <freeYieldHP>:
20005008:	ff010113          	addi	sp,sp,-16
2000500c:	00112623          	sw	ra,12(sp)
20005010:	00812423          	sw	s0,8(sp)
20005014:	01010413          	addi	s0,sp,16
20005018:	200067b7          	lui	a5,0x20006
2000501c:	0987a783          	lw	a5,152(a5) # 20006098 <yieldHighProc>
20005020:	02078663          	beqz	a5,2000504c <freeYieldHP+0x44>
20005024:	200067b7          	lui	a5,0x20006
20005028:	0987a783          	lw	a5,152(a5) # 20006098 <yieldHighProc>
2000502c:	0b47a703          	lw	a4,180(a5)
20005030:	200067b7          	lui	a5,0x20006
20005034:	0987a783          	lw	a5,152(a5) # 20006098 <yieldHighProc>
20005038:	00078593          	mv	a1,a5
2000503c:	00070513          	mv	a0,a4
20005040:	4a4000ef          	jal	ra,200054e4 <insert_ready_queue>
20005044:	200067b7          	lui	a5,0x20006
20005048:	0807ac23          	sw	zero,152(a5) # 20006098 <yieldHighProc>
2000504c:	00000013          	nop
20005050:	00c12083          	lw	ra,12(sp)
20005054:	00812403          	lw	s0,8(sp)
20005058:	01010113          	addi	sp,sp,16
2000505c:	00008067          	ret

20005060 <load_or_scheduler>:
20005060:	fe010113          	addi	sp,sp,-32
20005064:	00112e23          	sw	ra,28(sp)
20005068:	00812c23          	sw	s0,24(sp)
2000506c:	02010413          	addi	s0,sp,32
20005070:	fea42623          	sw	a0,-20(s0)
20005074:	200067b7          	lui	a5,0x20006
20005078:	0907a783          	lw	a5,144(a5) # 20006090 <currentActiveProc>
2000507c:	00079463          	bnez	a5,20005084 <load_or_scheduler+0x24>
20005080:	eb9ff0ef          	jal	ra,20004f38 <scheduler>
20005084:	fec42503          	lw	a0,-20(s0)
20005088:	018000ef          	jal	ra,200050a0 <load_state>
2000508c:	00000013          	nop
20005090:	01c12083          	lw	ra,28(sp)
20005094:	01812403          	lw	s0,24(sp)
20005098:	02010113          	addi	sp,sp,32
2000509c:	00008067          	ret

200050a0 <load_state>:
200050a0:	fe010113          	addi	sp,sp,-32
200050a4:	00112e23          	sw	ra,28(sp)
200050a8:	00812c23          	sw	s0,24(sp)
200050ac:	02010413          	addi	s0,sp,32
200050b0:	fea42623          	sw	a0,-20(s0)
200050b4:	100007b7          	lui	a5,0x10000
200050b8:	01c78793          	addi	a5,a5,28 # 1000001c <_ftext-0x10000fe4>
200050bc:	0007a703          	lw	a4,0(a5)
200050c0:	100007b7          	lui	a5,0x10000
200050c4:	02478793          	addi	a5,a5,36 # 10000024 <_ftext-0x10000fdc>
200050c8:	0007a783          	lw	a5,0(a5)
200050cc:	02f74733          	div	a4,a4,a5
200050d0:	200067b7          	lui	a5,0x20006
200050d4:	08e7aa23          	sw	a4,148(a5) # 20006094 <startTime>
200050d8:	fec42503          	lw	a0,-20(s0)
200050dc:	230000ef          	jal	ra,2000530c <LDST>
200050e0:	00000013          	nop
200050e4:	01c12083          	lw	ra,28(sp)
200050e8:	01812403          	lw	s0,24(sp)
200050ec:	02010113          	addi	sp,sp,32
200050f0:	00008067          	ret

200050f4 <update_curr_proc_time>:
200050f4:	fe010113          	addi	sp,sp,-32
200050f8:	00812e23          	sw	s0,28(sp)
200050fc:	02010413          	addi	s0,sp,32
20005100:	100007b7          	lui	a5,0x10000
20005104:	01c78793          	addi	a5,a5,28 # 1000001c <_ftext-0x10000fe4>
20005108:	0007a703          	lw	a4,0(a5)
2000510c:	100007b7          	lui	a5,0x10000
20005110:	02478793          	addi	a5,a5,36 # 10000024 <_ftext-0x10000fdc>
20005114:	0007a783          	lw	a5,0(a5)
20005118:	02f747b3          	div	a5,a4,a5
2000511c:	fef42623          	sw	a5,-20(s0)
20005120:	200067b7          	lui	a5,0x20006
20005124:	0907a783          	lw	a5,144(a5) # 20006090 <currentActiveProc>
20005128:	0a87a683          	lw	a3,168(a5)
2000512c:	200067b7          	lui	a5,0x20006
20005130:	0947a783          	lw	a5,148(a5) # 20006094 <startTime>
20005134:	fec42703          	lw	a4,-20(s0)
20005138:	40f70733          	sub	a4,a4,a5
2000513c:	200067b7          	lui	a5,0x20006
20005140:	0907a783          	lw	a5,144(a5) # 20006090 <currentActiveProc>
20005144:	00e68733          	add	a4,a3,a4
20005148:	0ae7a423          	sw	a4,168(a5)
2000514c:	00000013          	nop
20005150:	01c12403          	lw	s0,28(sp)
20005154:	02010113          	addi	sp,sp,32
20005158:	00008067          	ret

2000515c <scheduler_empty_queues>:
2000515c:	ff010113          	addi	sp,sp,-16
20005160:	00112623          	sw	ra,12(sp)
20005164:	00812423          	sw	s0,8(sp)
20005168:	01010413          	addi	s0,sp,16
2000516c:	200067b7          	lui	a5,0x20006
20005170:	0747a783          	lw	a5,116(a5) # 20006074 <activeProc>
20005174:	00079463          	bnez	a5,2000517c <scheduler_empty_queues+0x20>
20005178:	1d4000ef          	jal	ra,2000534c <HALT>
2000517c:	200067b7          	lui	a5,0x20006
20005180:	0747a783          	lw	a5,116(a5) # 20006074 <activeProc>
20005184:	02f05463          	blez	a5,200051ac <scheduler_empty_queues+0x50>
20005188:	200067b7          	lui	a5,0x20006
2000518c:	07c7a783          	lw	a5,124(a5) # 2000607c <blockedProc>
20005190:	00f05e63          	blez	a5,200051ac <scheduler_empty_queues+0x50>
20005194:	200067b7          	lui	a5,0x20006
20005198:	0807a823          	sw	zero,144(a5) # 20006090 <currentActiveProc>
2000519c:	000107b7          	lui	a5,0x10
200051a0:	f0178513          	addi	a0,a5,-255 # ff01 <_ftext-0x1fff10ff>
200051a4:	10c000ef          	jal	ra,200052b0 <setSTATUS>
200051a8:	194000ef          	jal	ra,2000533c <WAIT>
200051ac:	200067b7          	lui	a5,0x20006
200051b0:	0747a783          	lw	a5,116(a5) # 20006074 <activeProc>
200051b4:	00f05a63          	blez	a5,200051c8 <scheduler_empty_queues+0x6c>
200051b8:	200067b7          	lui	a5,0x20006
200051bc:	07c7a783          	lw	a5,124(a5) # 2000607c <blockedProc>
200051c0:	00079463          	bnez	a5,200051c8 <scheduler_empty_queues+0x6c>
200051c4:	198000ef          	jal	ra,2000535c <PANIC>
200051c8:	00000013          	nop
200051cc:	00c12083          	lw	ra,12(sp)
200051d0:	00812403          	lw	s0,8(sp)
200051d4:	01010113          	addi	sp,sp,16
200051d8:	00008067          	ret

200051dc <__start>:
200051dc:	100002b7          	lui	t0,0x10000
200051e0:	0002a403          	lw	s0,0(t0) # 10000000 <_ftext-0x10001000>
200051e4:	000014b7          	lui	s1,0x1
200051e8:	00940433          	add	s0,s0,s1
200051ec:	ff840113          	addi	sp,s0,-8
200051f0:	200011b7          	lui	gp,0x20001
200051f4:	0a818193          	addi	gp,gp,168 # 200010a8 <_ftext+0xa8>
200051f8:	ff010113          	addi	sp,sp,-16
200051fc:	394000ef          	jal	ra,20005590 <main>
20005200:	01010113          	addi	sp,sp,16
20005204:	00300513          	li	a0,3
20005208:	00000013          	nop
2000520c:	00100073          	ebreak
20005210:	00000013          	nop
20005214:	00000013          	nop
20005218:	00000013          	nop
2000521c:	00008067          	ret
20005220:	00000013          	nop
20005224:	00000013          	nop
20005228:	00000013          	nop
2000522c:	00008067          	ret

20005230 <SYSCALL>:
20005230:	00000013          	nop
20005234:	00000073          	ecall
20005238:	00000013          	nop
2000523c:	00008067          	ret

20005240 <getINDEX>:
20005240:	00350513          	addi	a0,a0,3 # ffff003 <_ftext-0x10001ffd>
20005244:	00008067          	ret

20005248 <getRANDOM>:
20005248:	00350513          	addi	a0,a0,3
2000524c:	00008067          	ret

20005250 <getENTRYLO>:
20005250:	00350513          	addi	a0,a0,3
20005254:	00008067          	ret

20005258 <getBADVADDR>:
20005258:	00350513          	addi	a0,a0,3
2000525c:	00008067          	ret

20005260 <getTIMER>:
20005260:	00350513          	addi	a0,a0,3
20005264:	00008067          	ret

20005268 <getENTRYHI>:
20005268:	00350513          	addi	a0,a0,3
2000526c:	00008067          	ret

20005270 <getSTATUS>:
20005270:	00350513          	addi	a0,a0,3
20005274:	00008067          	ret

20005278 <getCAUSE>:
20005278:	00350513          	addi	a0,a0,3
2000527c:	00008067          	ret

20005280 <getEPC>:
20005280:	00350513          	addi	a0,a0,3
20005284:	00008067          	ret

20005288 <getPRID>:
20005288:	00350513          	addi	a0,a0,3
2000528c:	00008067          	ret

20005290 <setINDEX>:
20005290:	00358593          	addi	a1,a1,3
20005294:	00008067          	ret

20005298 <setENTRYLO>:
20005298:	00358593          	addi	a1,a1,3
2000529c:	00008067          	ret

200052a0 <setTIMER>:
200052a0:	00358593          	addi	a1,a1,3
200052a4:	00008067          	ret

200052a8 <setENTRYHI>:
200052a8:	00358593          	addi	a1,a1,3
200052ac:	00008067          	ret

200052b0 <setSTATUS>:
200052b0:	00358593          	addi	a1,a1,3
200052b4:	00008067          	ret

200052b8 <setCAUSE>:
200052b8:	00358593          	addi	a1,a1,3
200052bc:	00008067          	ret

200052c0 <TLBWR>:
200052c0:	00000013          	nop
200052c4:	01488893          	addi	a7,a7,20
200052c8:	00000073          	ecall
200052cc:	00000013          	nop
200052d0:	00008067          	ret

200052d4 <TLBWI>:
200052d4:	00000013          	nop
200052d8:	00000013          	nop
200052dc:	00008067          	ret

200052e0 <TLBP>:
200052e0:	00000013          	nop
200052e4:	00000013          	nop
200052e8:	00008067          	ret

200052ec <TLBR>:
200052ec:	00000013          	nop
200052f0:	00000013          	nop
200052f4:	00008067          	ret

200052f8 <TLBCLR>:
200052f8:	00000013          	nop
200052fc:	00000013          	nop
20005300:	00008067          	ret

20005304 <STST>:
20005304:	00008513          	mv	a0,ra
20005308:	00008067          	ret

2000530c <LDST>:
2000530c:	00050593          	mv	a1,a0
20005310:	00100513          	li	a0,1
20005314:	00100073          	ebreak
20005318:	00000013          	nop
2000531c:	00008067          	ret

20005320 <LDCXT>:
20005320:	00060693          	mv	a3,a2
20005324:	00058613          	mv	a2,a1
20005328:	00050593          	mv	a1,a0
2000532c:	00000513          	li	a0,0
20005330:	00100073          	ebreak
20005334:	00000013          	nop
20005338:	00008067          	ret

2000533c <WAIT>:
2000533c:	00000013          	nop
20005340:	10500073          	wfi
20005344:	00000013          	nop
20005348:	00008067          	ret

2000534c <HALT>:
2000534c:	00300513          	li	a0,3
20005350:	00100073          	ebreak
20005354:	00000013          	nop
20005358:	00008067          	ret

2000535c <PANIC>:
2000535c:	00200513          	li	a0,2
20005360:	00100073          	ebreak
20005364:	00000013          	nop
20005368:	00008067          	ret

2000536c <init_global_var>:
2000536c:	fe010113          	addi	sp,sp,-32
20005370:	00112e23          	sw	ra,28(sp)
20005374:	00812c23          	sw	s0,24(sp)
20005378:	02010413          	addi	s0,sp,32
2000537c:	200067b7          	lui	a5,0x20006
20005380:	0607ac23          	sw	zero,120(a5) # 20006078 <processId>
20005384:	200067b7          	lui	a5,0x20006
20005388:	0607aa23          	sw	zero,116(a5) # 20006074 <activeProc>
2000538c:	200067b7          	lui	a5,0x20006
20005390:	0607ae23          	sw	zero,124(a5) # 2000607c <blockedProc>
20005394:	200067b7          	lui	a5,0x20006
20005398:	08078513          	addi	a0,a5,128 # 20006080 <queueLowProc>
2000539c:	dddfd0ef          	jal	ra,20003178 <mkEmptyProcQ>
200053a0:	200067b7          	lui	a5,0x20006
200053a4:	08878513          	addi	a0,a5,136 # 20006088 <queueHighProc>
200053a8:	dd1fd0ef          	jal	ra,20003178 <mkEmptyProcQ>
200053ac:	200067b7          	lui	a5,0x20006
200053b0:	0807a823          	sw	zero,144(a5) # 20006090 <currentActiveProc>
200053b4:	200067b7          	lui	a5,0x20006
200053b8:	0807ac23          	sw	zero,152(a5) # 20006098 <yieldHighProc>
200053bc:	200067b7          	lui	a5,0x20006
200053c0:	0807ae23          	sw	zero,156(a5) # 2000609c <semIntervalTimer>
200053c4:	fe042623          	sw	zero,-20(s0)
200053c8:	0a00006f          	j	20005468 <init_global_var+0xfc>
200053cc:	200087b7          	lui	a5,0x20008
200053d0:	cdc78713          	addi	a4,a5,-804 # 20007cdc <semDiskDevice>
200053d4:	fec42783          	lw	a5,-20(s0)
200053d8:	00279793          	slli	a5,a5,0x2
200053dc:	00f707b3          	add	a5,a4,a5
200053e0:	0007a023          	sw	zero,0(a5)
200053e4:	200087b7          	lui	a5,0x20008
200053e8:	cfc78713          	addi	a4,a5,-772 # 20007cfc <semFlashDevice>
200053ec:	fec42783          	lw	a5,-20(s0)
200053f0:	00279793          	slli	a5,a5,0x2
200053f4:	00f707b3          	add	a5,a4,a5
200053f8:	0007a023          	sw	zero,0(a5)
200053fc:	200087b7          	lui	a5,0x20008
20005400:	d1c78713          	addi	a4,a5,-740 # 20007d1c <semNetworkDevice>
20005404:	fec42783          	lw	a5,-20(s0)
20005408:	00279793          	slli	a5,a5,0x2
2000540c:	00f707b3          	add	a5,a4,a5
20005410:	0007a023          	sw	zero,0(a5)
20005414:	200087b7          	lui	a5,0x20008
20005418:	d3c78713          	addi	a4,a5,-708 # 20007d3c <semPrinterDevice>
2000541c:	fec42783          	lw	a5,-20(s0)
20005420:	00279793          	slli	a5,a5,0x2
20005424:	00f707b3          	add	a5,a4,a5
20005428:	0007a023          	sw	zero,0(a5)
2000542c:	200087b7          	lui	a5,0x20008
20005430:	d5c78713          	addi	a4,a5,-676 # 20007d5c <semTerminalDeviceReading>
20005434:	fec42783          	lw	a5,-20(s0)
20005438:	00279793          	slli	a5,a5,0x2
2000543c:	00f707b3          	add	a5,a4,a5
20005440:	0007a023          	sw	zero,0(a5)
20005444:	200087b7          	lui	a5,0x20008
20005448:	d7c78713          	addi	a4,a5,-644 # 20007d7c <semTerminalDeviceWriting>
2000544c:	fec42783          	lw	a5,-20(s0)
20005450:	00279793          	slli	a5,a5,0x2
20005454:	00f707b3          	add	a5,a4,a5
20005458:	0007a023          	sw	zero,0(a5)
2000545c:	fec42783          	lw	a5,-20(s0)
20005460:	00178793          	addi	a5,a5,1
20005464:	fef42623          	sw	a5,-20(s0)
20005468:	fec42703          	lw	a4,-20(s0)
2000546c:	00700793          	li	a5,7
20005470:	f4e7dee3          	bge	a5,a4,200053cc <init_global_var+0x60>
20005474:	00000013          	nop
20005478:	00000013          	nop
2000547c:	01c12083          	lw	ra,28(sp)
20005480:	01812403          	lw	s0,24(sp)
20005484:	02010113          	addi	sp,sp,32
20005488:	00008067          	ret

2000548c <init_passupvector>:
2000548c:	fe010113          	addi	sp,sp,-32
20005490:	00812e23          	sw	s0,28(sp)
20005494:	02010413          	addi	s0,sp,32
20005498:	fea42623          	sw	a0,-20(s0)
2000549c:	200017b7          	lui	a5,0x20001
200054a0:	19078713          	addi	a4,a5,400 # 20001190 <uTLB_RefillHandler>
200054a4:	fec42783          	lw	a5,-20(s0)
200054a8:	00e7a023          	sw	a4,0(a5)
200054ac:	fec42783          	lw	a5,-20(s0)
200054b0:	20001737          	lui	a4,0x20001
200054b4:	00e7a223          	sw	a4,4(a5)
200054b8:	200047b7          	lui	a5,0x20004
200054bc:	10478713          	addi	a4,a5,260 # 20004104 <exception_handler>
200054c0:	fec42783          	lw	a5,-20(s0)
200054c4:	00e7a423          	sw	a4,8(a5)
200054c8:	fec42783          	lw	a5,-20(s0)
200054cc:	20001737          	lui	a4,0x20001
200054d0:	00e7a623          	sw	a4,12(a5)
200054d4:	00000013          	nop
200054d8:	01c12403          	lw	s0,28(sp)
200054dc:	02010113          	addi	sp,sp,32
200054e0:	00008067          	ret

200054e4 <insert_ready_queue>:
200054e4:	fe010113          	addi	sp,sp,-32
200054e8:	00112e23          	sw	ra,28(sp)
200054ec:	00812c23          	sw	s0,24(sp)
200054f0:	02010413          	addi	s0,sp,32
200054f4:	fea42623          	sw	a0,-20(s0)
200054f8:	feb42423          	sw	a1,-24(s0)
200054fc:	fe842783          	lw	a5,-24(s0)
20005500:	fec42703          	lw	a4,-20(s0)
20005504:	0ae7aa23          	sw	a4,180(a5)
20005508:	fec42703          	lw	a4,-20(s0)
2000550c:	00100793          	li	a5,1
20005510:	00f71c63          	bne	a4,a5,20005528 <insert_ready_queue+0x44>
20005514:	fe842583          	lw	a1,-24(s0)
20005518:	200067b7          	lui	a5,0x20006
2000551c:	08878513          	addi	a0,a5,136 # 20006088 <queueHighProc>
20005520:	cbdfd0ef          	jal	ra,200031dc <insertProcQ>
20005524:	0140006f          	j	20005538 <insert_ready_queue+0x54>
20005528:	fe842583          	lw	a1,-24(s0)
2000552c:	200067b7          	lui	a5,0x20006
20005530:	08078513          	addi	a0,a5,128 # 20006080 <queueLowProc>
20005534:	ca9fd0ef          	jal	ra,200031dc <insertProcQ>
20005538:	00000013          	nop
2000553c:	01c12083          	lw	ra,28(sp)
20005540:	01812403          	lw	s0,24(sp)
20005544:	02010113          	addi	sp,sp,32
20005548:	00008067          	ret

2000554c <set_pid>:
2000554c:	fe010113          	addi	sp,sp,-32
20005550:	00812e23          	sw	s0,28(sp)
20005554:	02010413          	addi	s0,sp,32
20005558:	fea42623          	sw	a0,-20(s0)
2000555c:	200067b7          	lui	a5,0x20006
20005560:	0787a783          	lw	a5,120(a5) # 20006078 <processId>
20005564:	00178713          	addi	a4,a5,1
20005568:	200067b7          	lui	a5,0x20006
2000556c:	06e7ac23          	sw	a4,120(a5) # 20006078 <processId>
20005570:	200067b7          	lui	a5,0x20006
20005574:	0787a703          	lw	a4,120(a5) # 20006078 <processId>
20005578:	fec42783          	lw	a5,-20(s0)
2000557c:	0ae7ac23          	sw	a4,184(a5)
20005580:	00000013          	nop
20005584:	01c12403          	lw	s0,28(sp)
20005588:	02010113          	addi	sp,sp,32
2000558c:	00008067          	ret

20005590 <main>:
20005590:	fd010113          	addi	sp,sp,-48
20005594:	02112623          	sw	ra,44(sp)
20005598:	02812423          	sw	s0,40(sp)
2000559c:	03010413          	addi	s0,sp,48
200055a0:	fca42e23          	sw	a0,-36(s0)
200055a4:	fcb42c23          	sw	a1,-40(s0)
200055a8:	a59fd0ef          	jal	ra,20003000 <initPcbs>
200055ac:	da4fe0ef          	jal	ra,20003b50 <initASL>
200055b0:	dbdff0ef          	jal	ra,2000536c <init_global_var>
200055b4:	100007b7          	lui	a5,0x10000
200055b8:	90078793          	addi	a5,a5,-1792 # ffff900 <_ftext-0x10001700>
200055bc:	fef42623          	sw	a5,-20(s0)
200055c0:	fec42503          	lw	a0,-20(s0)
200055c4:	ec9ff0ef          	jal	ra,2000548c <init_passupvector>
200055c8:	100007b7          	lui	a5,0x10000
200055cc:	02478793          	addi	a5,a5,36 # 10000024 <_ftext-0x10000fdc>
200055d0:	0007a683          	lw	a3,0(a5)
200055d4:	100007b7          	lui	a5,0x10000
200055d8:	02078793          	addi	a5,a5,32 # 10000020 <_ftext-0x10000fe0>
200055dc:	00018737          	lui	a4,0x18
200055e0:	6a070713          	addi	a4,a4,1696 # 186a0 <_ftext-0x1ffe8960>
200055e4:	02e68733          	mul	a4,a3,a4
200055e8:	00e7a023          	sw	a4,0(a5)
200055ec:	ac9fd0ef          	jal	ra,200030b4 <allocPcb>
200055f0:	fea42423          	sw	a0,-24(s0)
200055f4:	200067b7          	lui	a5,0x20006
200055f8:	0747a783          	lw	a5,116(a5) # 20006074 <activeProc>
200055fc:	00178713          	addi	a4,a5,1
20005600:	200067b7          	lui	a5,0x20006
20005604:	06e7aa23          	sw	a4,116(a5) # 20006074 <activeProc>
20005608:	fe842583          	lw	a1,-24(s0)
2000560c:	00000513          	li	a0,0
20005610:	ed5ff0ef          	jal	ra,200054e4 <insert_ready_queue>
20005614:	fe842783          	lw	a5,-24(s0)
20005618:	08010737          	lui	a4,0x8010
2000561c:	f0470713          	addi	a4,a4,-252 # 800ff04 <_ftext-0x17ff10fc>
20005620:	02e7a223          	sw	a4,36(a5)
20005624:	200017b7          	lui	a5,0x20001
20005628:	1d078713          	addi	a4,a5,464 # 200011d0 <test>
2000562c:	fe842783          	lw	a5,-24(s0)
20005630:	08e7a623          	sw	a4,140(a5)
20005634:	fe842783          	lw	a5,-24(s0)
20005638:	08c7a703          	lw	a4,140(a5)
2000563c:	fe842783          	lw	a5,-24(s0)
20005640:	02e7a423          	sw	a4,40(a5)
20005644:	100007b7          	lui	a5,0x10000
20005648:	0007a703          	lw	a4,0(a5) # 10000000 <_ftext-0x10001000>
2000564c:	100007b7          	lui	a5,0x10000
20005650:	00478793          	addi	a5,a5,4 # 10000004 <_ftext-0x10000ffc>
20005654:	0007a783          	lw	a5,0(a5)
20005658:	00f707b3          	add	a5,a4,a5
2000565c:	00078713          	mv	a4,a5
20005660:	fe842783          	lw	a5,-24(s0)
20005664:	08e7aa23          	sw	a4,148(a5)
20005668:	8d1ff0ef          	jal	ra,20004f38 <scheduler>
2000566c:	00000793          	li	a5,0
20005670:	00078513          	mv	a0,a5
20005674:	02c12083          	lw	ra,44(sp)
20005678:	02812403          	lw	s0,40(sp)
2000567c:	03010113          	addi	sp,sp,48
20005680:	00008067          	ret
